(dp0
S'generation'
p1
I99
sS'logbook'
p2
ccopy_reg
_reconstructor
p3
(cdeap.tools.support
Logbook
p4
c__builtin__
list
p5
(lp6
(dp7
S'std'
p8
cnumpy.core.multiarray
scalar
p9
(cnumpy
dtype
p10
(S'f8'
p11
I0
I1
tp12
Rp13
(I3
S'<'
p14
NNNI-1
I-1
I0
tp15
bS'}\xe0\x14\xe3s\xe6\xd3?'
p16
tp17
Rp18
sS'evals'
p19
I30
sS'min'
p20
g9
(g13
S'\xd6\xc5;\x1d\xf4\x03\xf0?'
p21
tp22
Rp23
sS'max'
p24
g9
(g13
S'r\xe8\xce\x9a\x02h\x00@'
p25
tp26
Rp27
sS'avg'
p28
g9
(g13
S'1\xe6D<\xa4\x17\xf8?'
p29
tp30
Rp31
sS'gen'
p32
I0
sa(dp33
g8
g9
(g13
S'\xbc\x86HJ\xa63\xd9?'
p34
tp35
Rp36
sg19
I30
sg20
g9
(g13
S'\xd7*D\xc1\r\xa0\xef?'
p37
tp38
Rp39
sg24
g9
(g13
S'jhO5\x02\x17\x07@'
p40
tp41
Rp42
sg28
g9
(g13
S'\xe1\x95\xb1N\x99\xd0\xf8?'
p43
tp44
Rp45
sg32
I1
sa(dp46
g8
g9
(g13
S'?\x9a\xf0tSt\xe3?'
p47
tp48
Rp49
sg19
I30
sg20
g9
(g13
S'P\xad\xf2\xd5^\xae\xba\xbf'
p50
tp51
Rp52
sg24
g9
(g13
S'\xbc\x9b\xadL\xad\x9b\n@'
p53
tp54
Rp55
sg28
g9
(g13
S'\xdbP<\x94 >\xfa?'
p56
tp57
Rp58
sg32
I2
sa(dp59
g8
g9
(g13
S'\xa8\x15:\x99\xd0 \xe7?'
p60
tp61
Rp62
sg19
I30
sg20
g9
(g13
S'%\xe5\xd9E\x96\xaa\xf2?'
p63
tp64
Rp65
sg24
g9
(g13
S'\x01\xbd\x16\xa5\x8d\xee\x0e@'
p66
tp67
Rp68
sg28
g9
(g13
S'?\xdf\x00b\xc3\xf8\x01@'
p69
tp70
Rp71
sg32
I3
sa(dp72
g8
g9
(g13
S'Yd\x00\xdc\xe0\xcd\xe6?'
p73
tp74
Rp75
sg19
I30
sg20
g9
(g13
S'\x0c`1\xc9\xa5\x9a\xf5?'
p76
tp77
Rp78
sg24
g9
(g13
S'\x80*\xf5\x1d\xbb\x98\x11@'
p79
tp80
Rp81
sg28
g9
(g13
S'B\x7f\x90t/<\x06@'
p82
tp83
Rp84
sg32
I4
sa(dp85
g8
g9
(g13
S'P\x8f\xdb\x9b\xa9\x18\xe1?'
p86
tp87
Rp88
sg19
I30
sg20
g9
(g13
S'\xdc\x1b\xe4\xa4>\xa5\xf3?'
p89
tp90
Rp91
sg24
g9
(g13
S'\x82\x9a\x93\x08\x90W\x11@'
p92
tp93
Rp94
sg28
g9
(g13
S'\xaa\xf0#u\xd0\xd8\t@'
p95
tp96
Rp97
sg32
I5
sa(dp98
g8
g9
(g13
S'\x02z\xdc9\x85\x9b\xe2?'
p99
tp100
Rp101
sg19
I30
sg20
g9
(g13
S'\xfaLj\xed\xd0p\x06@'
p102
tp103
Rp104
sg24
g9
(g13
S'\xd4\x02%\xa9+\x84\x16@'
p105
tp106
Rp107
sg28
g9
(g13
S'\xc1\xdab\x7f`~\x0c@'
p108
tp109
Rp110
sg32
I6
sa(dp111
g8
g9
(g13
S'.7\x97X\t\x02\xe0?'
p112
tp113
Rp114
sg19
I30
sg20
g9
(g13
S'\xcd34]T\xa8\x07@'
p115
tp116
Rp117
sg24
g9
(g13
S'J\x94\x9f\xb5\xe7A\x12@'
p118
tp119
Rp120
sg28
g9
(g13
S'&\xc2\x80\x0b\xf1B\r@'
p121
tp122
Rp123
sg32
I7
sa(dp124
g8
g9
(g13
S'!K\x98\x9a\xed=\xe4?'
p125
tp126
Rp127
sg19
I30
sg20
g9
(g13
S'\xd4W\x9d&\xf1#\x08@'
p128
tp129
Rp130
sg24
g9
(g13
S'%\xe4\x93\x87@8\x19@'
p131
tp132
Rp133
sg28
g9
(g13
S'\xf6\x10\xaf`\xba\x1e\x10@'
p134
tp135
Rp136
sg32
I8
sa(dp137
g8
g9
(g13
S'\xcc\xed\xd5TE|\xe6?'
p138
tp139
Rp140
sg19
I30
sg20
g9
(g13
S'\x97\x1f\xda\x82\xed\x86\x0e@'
p141
tp142
Rp143
sg24
g9
(g13
S'\x16H\x1aiX\xa4\x19@'
p144
tp145
Rp146
sg28
g9
(g13
S'R\x87m\xd2\xf8L\x12@'
p147
tp148
Rp149
sg32
I9
sa(dp150
g8
g9
(g13
S'\x13\x93\xa4\xf7<\xb7\xee?'
p151
tp152
Rp153
sg19
I30
sg20
g9
(g13
S'\xe4\x1a\xeeO2\x98\x0e@'
p154
tp155
Rp156
sg24
g9
(g13
S'\x0e\xe7\xe30hO\x1c@'
p157
tp158
Rp159
sg28
g9
(g13
S'z\x9c\x0b\x91\xd7\xa9\x14@'
p160
tp161
Rp162
sg32
I10
sa(dp163
g8
g9
(g13
S'\xf6\x98*\x90\x9a?\xec?'
p164
tp165
Rp166
sg19
I30
sg20
g9
(g13
S'\xcc\xa3\x1c\xaa\x84\x85\x0f@'
p167
tp168
Rp169
sg24
g9
(g13
S'\x88c\\hPR\x1c@'
p170
tp171
Rp172
sg28
g9
(g13
S'0\x83N{h]\x17@'
p173
tp174
Rp175
sg32
I11
sa(dp176
g8
g9
(g13
S'\xa5\x8e\xefj\xd3J\xe1?'
p177
tp178
Rp179
sg19
I30
sg20
g9
(g13
S'\xf1\xf7\xa8\\]u\x15@'
p180
tp181
Rp182
sg24
g9
(g13
S'>\xf1\xd0\x95\x96]\x1f@'
p183
tp184
Rp185
sg28
g9
(g13
S'\xf9\xce&0\x9fq\x1a@'
p186
tp187
Rp188
sg32
I12
sa(dp189
g8
g9
(g13
S'W\x0f\xd9|\xf0u\xda?'
p190
tp191
Rp192
sg19
I30
sg20
g9
(g13
S'\x82\xcc\xac(\x83M\x18@'
p193
tp194
Rp195
sg24
g9
(g13
S'\x0c\xaf\xfc\xac\x06\xe9\x1f@'
p196
tp197
Rp198
sg28
g9
(g13
S'67K7\xe0M\x1b@'
p199
tp200
Rp201
sg32
I13
sa(dp202
g8
g9
(g13
S'\x80\r*?K\xc5\xd5?'
p203
tp204
Rp205
sg19
I30
sg20
g9
(g13
S'\xa0\x8b\xb1^\xce\x13\x1a@'
p206
tp207
Rp208
sg24
g9
(g13
S'\xae\xb9\x191\xae\xbb\x1f@'
p209
tp210
Rp211
sg28
g9
(g13
S'\xb5\xf5\xae\x02\xb7\x18\x1c@'
p212
tp213
Rp214
sg32
I14
sa(dp215
g8
g9
(g13
S'\xd7\xff=x\x90G\xde?'
p216
tp217
Rp218
sg19
I30
sg20
g9
(g13
S'\x89\xe8\x7f\x0b\xcd\xfb\x17@'
p219
tp220
Rp221
sg24
g9
(g13
S'\xba\x8fwwt\xb4\x1f@'
p222
tp223
Rp224
sg28
g9
(g13
S'f^\x0cW\x8cu\x1c@'
p225
tp226
Rp227
sg32
I15
sa(dp228
g8
g9
(g13
S'\xab\xady\xa6\xdfA\xd7?'
p229
tp230
Rp231
sg19
I30
sg20
g9
(g13
S'[\xa1\xef\x1a\x97\x0c\x1a@'
p232
tp233
Rp234
sg24
g9
(g13
S'\xc0\xa5\x1b\x7fS\x07 @'
p235
tp236
Rp237
sg28
g9
(g13
S'bE,Q\xeb\xba\x1d@'
p238
tp239
Rp240
sg32
I16
sa(dp241
g8
g9
(g13
S'\xdbA\xc3.>\xc0\xe1?'
p242
tp243
Rp244
sg19
I30
sg20
g9
(g13
S'\xb5\xae\xef\x03)\xb8\x16@'
p245
tp246
Rp247
sg24
g9
(g13
S'\x89\xf1_\xfd\x0c\xe3!@'
p248
tp249
Rp250
sg28
g9
(g13
S'\x19)\x86\x0f\x9c\x19\x1e@'
p251
tp252
Rp253
sg32
I17
sa(dp254
g8
g9
(g13
S'\xb0`\xf7\xd0\x85\x07\xe3?'
p255
tp256
Rp257
sg19
I30
sg20
g9
(g13
S'D9\x8bD]\x1b\x1c@'
p258
tp259
Rp260
sg24
g9
(g13
S'#\xb2\x9b\xbc\xf3\x96!@'
p261
tp262
Rp263
sg28
g9
(g13
S'\xe1\x8b&\n\\6\x1f@'
p264
tp265
Rp266
sg32
I18
sa(dp267
g8
g9
(g13
S'\xb0\xcd\xd9\xdd\\k\xe2?'
p268
tp269
Rp270
sg19
I30
sg20
g9
(g13
S'\xc6\xcb\x80\x1e\xe7G\x1b@'
p271
tp272
Rp273
sg24
g9
(g13
S'\x1b\xc2\x08w\x93\xf4!@'
p274
tp275
Rp276
sg28
g9
(g13
S'\xed\xb4?\x9f\xfc\x85 @'
p277
tp278
Rp279
sg32
I19
sa(dp280
g8
g9
(g13
S'\x1d\xf5\xbb\xcf\x8e\xb8\xcf?'
p281
tp282
Rp283
sg19
I30
sg20
g9
(g13
S'\x01ES\x95#\x0b @'
p284
tp285
Rp286
sg24
g9
(g13
S'\x16;\x8f\x04\xa3\xb9!@'
p287
tp288
Rp289
sg28
g9
(g13
S'\xe7\x99\xbd\x96\x03\xd8 @'
p290
tp291
Rp292
sg32
I20
sa(dp293
g8
g9
(g13
S'X\x1e\xac!::\xd6?'
p294
tp295
Rp296
sg19
I30
sg20
g9
(g13
S'o\x04mx\xdc_\x1e@'
p297
tp298
Rp299
sg24
g9
(g13
S'\x1a\xe4v\x833\xfe!@'
p300
tp301
Rp302
sg28
g9
(g13
S'\xb2.\x1f\xc7\x90\xf8 @'
p303
tp304
Rp305
sg32
I21
sa(dp306
g8
g9
(g13
S'\x93\x82+\x8c]A\xdf?'
p307
tp308
Rp309
sg19
I30
sg20
g9
(g13
S'\x1c\xa3\x9b\x17z\x0e @'
p310
tp311
Rp312
sg24
g9
(g13
S'4q(\xab\x84\xc2$@'
p313
tp314
Rp315
sg28
g9
(g13
S'\x9f?h\xc1C\x06!@'
p316
tp317
Rp318
sg32
I22
sa(dp319
g8
g9
(g13
S'K\n=d\x10\xf9\xe6?'
p320
tp321
Rp322
sg19
I30
sg20
g9
(g13
S'\x88\xebt\x9c\x00% @'
p323
tp324
Rp325
sg24
g9
(g13
S"'\xa8\x8f\xc8\x91L%@"
p326
tp327
Rp328
sg28
g9
(g13
S'\x0c\\i\xbc\x8c\xa6!@'
p329
tp330
Rp331
sg32
I23
sa(dp332
g8
g9
(g13
S'\xde\xe8\xfai\x11\x10\xe5?'
p333
tp334
Rp335
sg19
I30
sg20
g9
(g13
S'\xd9\xee\xc6\xaa]- @'
p336
tp337
Rp338
sg24
g9
(g13
S'\xa5\xb9\x89\xf9\xab\x08%@'
p339
tp340
Rp341
sg28
g9
(g13
S']\\\xdeq\x16\xa7"@'
p342
tp343
Rp344
sg32
I24
sa(dp345
g8
g9
(g13
S'\xafAn:\x1b\xdd\xda?'
p346
tp347
Rp348
sg19
I30
sg20
g9
(g13
S'\xfe-\x12\xc9a_"@'
p349
tp350
Rp351
sg24
g9
(g13
S'\x9f\x92\xf6\xdb\xde\x18%@'
p352
tp353
Rp354
sg28
g9
(g13
S'\tM\xb0V\x03\xda#@'
p355
tp356
Rp357
sg32
I25
sa(dp358
g8
g9
(g13
S'J\x8d\xe0\x89\x8f"\xd2?'
p359
tp360
Rp361
sg19
I30
sg20
g9
(g13
S"\x8e'\x14\xbb-e#@"
p362
tp363
Rp364
sg24
g9
(g13
S'\xac\xfa\xa4\r\xb4K%@'
p365
tp366
Rp367
sg28
g9
(g13
S'\xd9\x1d\x12q\xeeW$@'
p368
tp369
Rp370
sg32
I26
sa(dp371
g8
g9
(g13
S'\xc4\xe3C\x8d\\u\xd4?'
p372
tp373
Rp374
sg19
I30
sg20
g9
(g13
S'.\x07\x10\x1f\x8dY#@'
p375
tp376
Rp377
sg24
g9
(g13
S'\xceh4\xd9r@%@'
p378
tp379
Rp380
sg28
g9
(g13
S'3\xec\nC\xf0Z$@'
p381
tp382
Rp383
sg32
I27
sa(dp384
g8
g9
(g13
S'\xc2\xc5\x13CZ\xf2\xd3?'
p385
tp386
Rp387
sg19
I30
sg20
g9
(g13
S'\xda"\x7fX@Q#@'
p388
tp389
Rp390
sg24
g9
(g13
S'U\xd6\x97h\xbe8%@'
p391
tp392
Rp393
sg28
g9
(g13
S'\xa4QI[\x89k$@'
p394
tp395
Rp396
sg32
I28
sa(dp397
g8
g9
(g13
S'\x18\xe43Q\xde\xe4\xd5?'
p398
tp399
Rp400
sg19
I30
sg20
g9
(g13
S'\xb1\xe0{\x97S\xc9!@'
p401
tp402
Rp403
sg24
g9
(g13
S'-\x8e0\x1c,H%@'
p404
tp405
Rp406
sg28
g9
(g13
S'i\x89);N7$@'
p407
tp408
Rp409
sg32
I29
sa(dp410
g8
g9
(g13
S'6\x8cA\xf7(!\xe0?'
p411
tp412
Rp413
sg19
I30
sg20
g9
(g13
S"<,]'{W#@"
p414
tp415
Rp416
sg24
g9
(g13
S'#\xab\t\xf1\xff\x07(@'
p417
tp418
Rp419
sg28
g9
(g13
S'\xb0\x1b\x96\xd5\x9a\x9b$@'
p420
tp421
Rp422
sg32
I30
sa(dp423
g8
g9
(g13
S'^L\xe8\xe7\x05\xff\xe5?'
p424
tp425
Rp426
sg19
I30
sg20
g9
(g13
S'\xaf+j\x06\x13\xce"@'
p427
tp428
Rp429
sg24
g9
(g13
S'\x12\x8cN\x12\xa7D(@'
p430
tp431
Rp432
sg28
g9
(g13
S'\xf0\xe2\x1a~\xbf\xba$@'
p433
tp434
Rp435
sg32
I31
sa(dp436
g8
g9
(g13
S'e\xd7\x11\x15\xf5\x8e\xec?'
p437
tp438
Rp439
sg19
I30
sg20
g9
(g13
S"'\x8f\x01\x10Z\xdd @"
p440
tp441
Rp442
sg24
g9
(g13
S'#\xcdz\xe3B\xbb(@'
p443
tp444
Rp445
sg28
g9
(g13
S'=\xaf\xd4Y\xd5\x81%@'
p446
tp447
Rp448
sg32
I32
sa(dp449
g8
g9
(g13
S'\xc8\x0e3Cl\xa9\xe8?'
p450
tp451
Rp452
sg19
I30
sg20
g9
(g13
S'\xd9\xa4&\xf0\xc3_#@'
p453
tp454
Rp455
sg24
g9
(g13
S'\xd4\t1\xdb\xfb\xd4(@'
p456
tp457
Rp458
sg28
g9
(g13
S'd\xfb"\xc1\xb0}&@'
p459
tp460
Rp461
sg32
I33
sa(dp462
g8
g9
(g13
S's|\x11\xa6f\xb7\xdb?'
p463
tp464
Rp465
sg19
I30
sg20
g9
(g13
S'\xaf\xab\xb2-{\xec$@'
p466
tp467
Rp468
sg24
g9
(g13
S'm\xda\r\x9a+\xcf(@'
p469
tp470
Rp471
sg28
g9
(g13
S"\xa1\\l\x99\x0e\x8d'@"
p472
tp473
Rp474
sg32
I34
sa(dp475
g8
g9
(g13
S'\xb1qQ\xf4\x82\x93\xd5?'
p476
tp477
Rp478
sg19
I30
sg20
g9
(g13
S'R\xad+\xc6\xc4\x99&@'
p479
tp480
Rp481
sg24
g9
(g13
S'\x10S3\xa7\xa4\xc0(@'
p482
tp483
Rp484
sg28
g9
(g13
S"\xbe\x10E\xcf\xc2\xbd'@"
p485
tp486
Rp487
sg32
I35
sa(dp488
g8
g9
(g13
S'5\xbb\xfa>\xa2\x96\xdd?'
p489
tp490
Rp491
sg19
I30
sg20
g9
(g13
S'\xba\x0b\xc7\x04\xad\xff$@'
p492
tp493
Rp494
sg24
g9
(g13
S'!\xa8\x80\x05En*@'
p495
tp496
Rp497
sg28
g9
(g13
S"\x03\x9a\xb9B'\x1b(@"
p498
tp499
Rp500
sg32
I36
sa(dp501
g8
g9
(g13
S'S\xb9\xd2\x91r\x98\xe0?'
p502
tp503
Rp504
sg19
I30
sg20
g9
(g13
S"\x9d?\xbe\x8db''@"
p505
tp506
Rp507
sg24
g9
(g13
S'\xb73\xffyPT+@'
p508
tp509
Rp510
sg28
g9
(g13
S'\xa5\xd9\xf4\xc6\x8e\x94(@'
p511
tp512
Rp513
sg32
I37
sa(dp514
g8
g9
(g13
S'\xec\xe9\x97^^\xa8\xe8?'
p515
tp516
Rp517
sg19
I30
sg20
g9
(g13
S"\xac\xb6\x15\xd9J8'@"
p518
tp519
Rp520
sg24
g9
(g13
S'\xd9\xed\t\xfbf\xdb+@'
p521
tp522
Rp523
sg28
g9
(g13
S'\x1dd\xc6\x12\xb2\xcf(@'
p524
tp525
Rp526
sg32
I38
sa(dp527
g8
g9
(g13
S'\xe9\x80\xffVF\xf8\xec?'
p528
tp529
Rp530
sg19
I30
sg20
g9
(g13
S"\\\xa3\x1d\xc2\x8f\x0e'@"
p531
tp532
Rp533
sg24
g9
(g13
S'4\x9a!\x9c\xadJ,@'
p534
tp535
Rp536
sg28
g9
(g13
S'K\x94t\xc1\xf2\x8d)@'
p537
tp538
Rp539
sg32
I39
sa(dp540
g8
g9
(g13
S'\x19F7\x97*B\xdf?'
p541
tp542
Rp543
sg19
I30
sg20
g9
(g13
S"\x85\x02k\xe4\xdfU'@"
p544
tp545
Rp546
sg24
g9
(g13
S'\x0c\x85\xa6k\xf9D,@'
p547
tp548
Rp549
sg28
g9
(g13
S'$l$\xf6\xa3\xbc*@'
p550
tp551
Rp552
sg32
I40
sa(dp553
g8
g9
(g13
S'Hu\xb3;\xc7\xf7\xd5?'
p554
tp555
Rp556
sg19
I30
sg20
g9
(g13
S'H1\xe5\xf5\x19\x01*@'
p557
tp558
Rp559
sg24
g9
(g13
S'\n>\xd2\xf7\x0e\xa8,@'
p560
tp561
Rp562
sg28
g9
(g13
S'i\xb0\xec\xbd\xb2\x87+@'
p563
tp564
Rp565
sg32
I41
sa(dp566
g8
g9
(g13
S'ui\xfb6n\xe7\xe5?'
p567
tp568
Rp569
sg19
I30
sg20
g9
(g13
S'\x9f\xec\xfd\x0b\x02\xbf(@'
p570
tp571
Rp572
sg24
g9
(g13
S'\xb5\n\x1e\xc6o\x7f/@'
p573
tp574
Rp575
sg28
g9
(g13
S'\xbdp\x16\xb4\x0c\xda+@'
p576
tp577
Rp578
sg32
I42
sa(dp579
g8
g9
(g13
S'\xe5\x12\xb9.\xf0\xe2\xeb?'
p580
tp581
Rp582
sg19
I30
sg20
g9
(g13
S'u-O\xde\xe9\xbc*@'
p583
tp584
Rp585
sg24
g9
(g13
S'\xb1M\xfa\x89v;0@'
p586
tp587
Rp588
sg28
g9
(g13
S'\xf4T\x93\xc5\xe1\x01-@'
p589
tp590
Rp591
sg32
I43
sa(dp592
g8
g9
(g13
S'\xdd\xda\xeb\xd9\xf9b\xe7?'
p593
tp594
Rp595
sg19
I30
sg20
g9
(g13
S'Px\x17[\x9e6*@'
p596
tp597
Rp598
sg24
g9
(g13
S'\x94 \x06N\xc2\x000@'
p599
tp600
Rp601
sg28
g9
(g13
S'\x0fRr1\x9d\xf7-@'
p602
tp603
Rp604
sg32
I44
sa(dp605
g8
g9
(g13
S'G\xd1\xc4,\x0f\xc4\xd7?'
p606
tp607
Rp608
sg19
I30
sg20
g9
(g13
S'B\xa7b*\xe1\xb0+@'
p609
tp610
Rp611
sg24
g9
(g13
S'&\x10\xfeIt\x90/@'
p612
tp613
Rp614
sg28
g9
(g13
S'\xdbnZy\xf9\x87.@'
p615
tp616
Rp617
sg32
I45
sa(dp618
g8
g9
(g13
S'\xbep\xf6\x1a\x97k\xd5?'
p619
tp620
Rp621
sg19
I30
sg20
g9
(g13
S'\xa6\xf3\xf4\xcf=\xa7-@'
p622
tp623
Rp624
sg24
g9
(g13
S'\n@\xadOaI0@'
p625
tp626
Rp627
sg28
g9
(g13
S'\x0cV}2\xff\x9e.@'
p628
tp629
Rp630
sg32
I46
sa(dp631
g8
g9
(g13
S'|J\xebs\x0c\x13\xe0?'
p632
tp633
Rp634
sg19
I30
sg20
g9
(g13
S'\xac\xde&\x84}\x07,@'
p635
tp636
Rp637
sg24
g9
(g13
S'B\xe3Id_\xf90@'
p638
tp639
Rp640
sg28
g9
(g13
S'\xaa\xb1\xbe\xed\xc5\x8d.@'
p641
tp642
Rp643
sg32
I47
sa(dp644
g8
g9
(g13
S'\xa7\xf4a\x85\x893\xdb?'
p645
tp646
Rp647
sg19
I30
sg20
g9
(g13
S'\xaaoQ\xe1Y\xac-@'
p648
tp649
Rp650
sg24
g9
(g13
S'gv\xd2\xe2f61@'
p651
tp652
Rp653
sg28
g9
(g13
S'\x0fd;\x17 \xb3.@'
p654
tp655
Rp656
sg32
I48
sa(dp657
g8
g9
(g13
S'\x87\x0eu\nS\xbe\xe5?'
p658
tp659
Rp660
sg19
I30
sg20
g9
(g13
S'\xd3\x80rE\xfe\xc9-@'
p661
tp662
Rp663
sg24
g9
(g13
S'\x01]pP\x18\xb01@'
p664
tp665
Rp666
sg28
g9
(g13
S'\x1a]\x8a\xc0\x0e*/@'
p667
tp668
Rp669
sg32
I49
sa(dp670
g8
g9
(g13
S' \xb4\x0b\xb1k+\xed?'
p671
tp672
Rp673
sg19
I30
sg20
g9
(g13
S'c\x18\xd01\t\xba-@'
p674
tp675
Rp676
sg24
g9
(g13
S'\x1a\xf7\xd2\xf8r\xc81@'
p677
tp678
Rp679
sg28
g9
(g13
S'\x1c"k_2\xe0/@'
p680
tp681
Rp682
sg32
I50
sa(dp683
g8
g9
(g13
S'O\x94\xcf\x8b\x04u\xf0?'
p684
tp685
Rp686
sg19
I30
sg20
g9
(g13
S'\xb3J?\xcb\xa8\xe0+@'
p687
tp688
Rp689
sg24
g9
(g13
S'\xb4\x17\x03.Q\xe61@'
p690
tp691
Rp692
sg28
g9
(g13
S'AE,\x15N\xa90@'
p693
tp694
Rp695
sg32
I51
sa(dp696
g8
g9
(g13
S'\x0c\x1c\xc0\xf7\xf7\xbf\xdc?'
p697
tp698
Rp699
sg19
I30
sg20
g9
(g13
S'\x84FY.\xd8\x830@'
p700
tp701
Rp702
sg24
g9
(g13
S'\xc2\x8b\x15\x056\x952@'
p703
tp704
Rp705
sg28
g9
(g13
S' \x11?\x0c`}1@'
p706
tp707
Rp708
sg32
I52
sa(dp709
g8
g9
(g13
S'\xd3<\x03\x91\x12.\xd9?'
p710
tp711
Rp712
sg19
I30
sg20
g9
(g13
S'\x0f+\xf0/k\x051@'
p713
tp714
Rp715
sg24
g9
(g13
S'\x1c\xa7\x9b\xca\xcf\xf12@'
p716
tp717
Rp718
sg28
g9
(g13
S'\xbf\x94`5\x8d\xad1@'
p719
tp720
Rp721
sg32
I53
sa(dp722
g8
g9
(g13
S'|Ex\x12n\x0e\xdf?'
p723
tp724
Rp725
sg19
I30
sg20
g9
(g13
S'\xc8V\xb6\x0e\x9c(0@'
p726
tp727
Rp728
sg24
g9
(g13
S'\x82O\x9b\xdc1\xfa2@'
p729
tp730
Rp731
sg28
g9
(g13
S'\x1bF\xd4\x1f\xb1\xa61@'
p732
tp733
Rp734
sg32
I54
sa(dp735
g8
g9
(g13
S'gr[x\xac\xe4\xea?'
p736
tp737
Rp738
sg19
I30
sg20
g9
(g13
S'\xa5\xf9\xe8\xa0>\x181@'
p739
tp740
Rp741
sg24
g9
(g13
S'Z\x80\xff\xf6+a5@'
p742
tp743
Rp744
sg28
g9
(g13
S'M\r\x8e\x80\xe2\x1a2@'
p745
tp746
Rp747
sg32
I55
sa(dp748
g8
g9
(g13
S'\xab\xf6)\xbb\x88N\xe3?'
p749
tp750
Rp751
sg19
I30
sg20
g9
(g13
S'%\xb3+\xd7S71@'
p752
tp753
Rp754
sg24
g9
(g13
S'(@n\x99\x85\xa64@'
p755
tp756
Rp757
sg28
g9
(g13
S'\xf2\x8ehE0\x932@'
p758
tp759
Rp760
sg32
I56
sa(dp761
g8
g9
(g13
S'x\\\x8b\x88\xd8\xcb\xe5?'
p762
tp763
Rp764
sg19
I30
sg20
g9
(g13
S'2\xca\x15\xaa\xa7-2@'
p765
tp766
Rp767
sg24
g9
(g13
S'\x1d\xdf@\x8d8\xd24@'
p768
tp769
Rp770
sg28
g9
(g13
S'C\xe4r\xfb\xfc\xde2@'
p771
tp772
Rp773
sg32
I57
sa(dp774
g8
g9
(g13
S'Mc\x10\xa4\xcfm\xf2?'
p775
tp776
Rp777
sg19
I30
sg20
g9
(g13
S'h~\xae\xaf\x08/2@'
p778
tp779
Rp780
sg24
g9
(g13
S'\x9a\xf1\x93\xfa\x08\x965@'
p781
tp782
Rp783
sg28
g9
(g13
S'\xe2~C\x04\x04Z3@'
p784
tp785
Rp786
sg32
I58
sa(dp787
g8
g9
(g13
S'\xc0\x10$\x05$\xdd\xf1?'
p788
tp789
Rp790
sg19
I30
sg20
g9
(g13
S'\xec\xe8\xdf\xa3\xfei2@'
p791
tp792
Rp793
sg24
g9
(g13
S'\xad\r#\xb7Bf5@'
p794
tp795
Rp796
sg28
g9
(g13
S'~\xe7\x9d\xda\xf4X4@'
p797
tp798
Rp799
sg32
I59
sa(dp800
g8
g9
(g13
S"'\xbd,O\xe5\x05\xec?"
p801
tp802
Rp803
sg19
I30
sg20
g9
(g13
S'\xad\xb3ZN\xa4L2@'
p804
tp805
Rp806
sg24
g9
(g13
S'\xaf\xdc\x0b\xf7\x9b\xc45@'
p807
tp808
Rp809
sg28
g9
(g13
S'\xef\xac#\xdd{\xa94@'
p810
tp811
Rp812
sg32
I60
sa(dp813
g8
g9
(g13
S'\xc5\x86;\xc0\xcd>\xe0?'
p814
tp815
Rp816
sg19
I30
sg20
g9
(g13
S'\x0e\xd0U9\xdb 4@'
p817
tp818
Rp819
sg24
g9
(g13
S'\xddu\xaf\x13\xf4\x147@'
p820
tp821
Rp822
sg28
g9
(g13
S'\x1c\x1e%6P$5@'
p823
tp824
Rp825
sg32
I61
sa(dp826
g8
g9
(g13
S'3\x1e\xd8\xc7\xf3\x15\xe7?'
p827
tp828
Rp829
sg19
I30
sg20
g9
(g13
S'\xee\xdc\xa7-&\x9f4@'
p830
tp831
Rp832
sg24
g9
(g13
S'>"\xc4\xe9\xa6t7@'
p833
tp834
Rp835
sg28
g9
(g13
S'\x11\x1d0\xa7\xeeq5@'
p836
tp837
Rp838
sg32
I62
sa(dp839
g8
g9
(g13
S'}K\xdd(\xd1\x8c\xec?'
p840
tp841
Rp842
sg19
I30
sg20
g9
(g13
S'\x12\xac\xd9\x8d\xb1(4@'
p843
tp844
Rp845
sg24
g9
(g13
S'\xe0V<V4:7@'
p846
tp847
Rp848
sg28
g9
(g13
S'A\xa2F\xc5\xe2\xef5@'
p849
tp850
Rp851
sg32
I63
sa(dp852
g8
g9
(g13
S'\x1e4t\x81\xcf\xf3\xe5?'
p853
tp854
Rp855
sg19
I30
sg20
g9
(g13
S'\xec\xe4\x15Xp<5@'
p856
tp857
Rp858
sg24
g9
(g13
S'\xbb\xad\x91\xa7sS8@'
p859
tp860
Rp861
sg28
g9
(g13
S'\r\xa4\x15\xeb\xc2\xa66@'
p862
tp863
Rp864
sg32
I64
sa(dp865
g8
g9
(g13
S'C\x02)\xaa\xbba\xda?'
p866
tp867
Rp868
sg19
I30
sg20
g9
(g13
S'\xc7\x98Lcq$6@'
p869
tp870
Rp871
sg24
g9
(g13
S'\xe5\xe5\xd2*4Q8@'
p872
tp873
Rp874
sg28
g9
(g13
S'\x15\xe0dAS\xfa6@'
p875
tp876
Rp877
sg32
I65
sa(dp878
g8
g9
(g13
S'8\x15\xdch\xc5\x97\xe3?'
p879
tp880
Rp881
sg19
I30
sg20
g9
(g13
S'\x19\xc7\xa5\x1b\xf8\xf75@'
p882
tp883
Rp884
sg24
g9
(g13
S'\xea\xecJ\x9f\x88\x119@'
p885
tp886
Rp887
sg28
g9
(g13
S'\x07\xfe\xa2\xe1\xe9$7@'
p888
tp889
Rp890
sg32
I66
sa(dp891
g8
g9
(g13
S'\xe9V?\x84\x94\x1f\xe8?'
p892
tp893
Rp894
sg19
I30
sg20
g9
(g13
S':\xe8\xf2\xbf\x1fr6@'
p895
tp896
Rp897
sg24
g9
(g13
S'Lz\xbax\xc9\\9@'
p898
tp899
Rp900
sg28
g9
(g13
S'J\x86\x0f1\x97|7@'
p901
tp902
Rp903
sg32
I67
sa(dp904
g8
g9
(g13
S'8\x08L2pd\xe9?'
p905
tp906
Rp907
sg19
I30
sg20
g9
(g13
S'#_W\xac\xe0\x956@'
p908
tp909
Rp910
sg24
g9
(g13
S'-\xa9\x99#\xe4Z9@'
p911
tp912
Rp913
sg28
g9
(g13
S'\x134\xbf(W\xf57@'
p914
tp915
Rp916
sg32
I68
sa(dp917
g8
g9
(g13
S"\t>'\xc0\t+\xe5?"
p918
tp919
Rp920
sg19
I30
sg20
g9
(g13
S'\xcd\\\x06*T\x0b7@'
p921
tp922
Rp923
sg24
g9
(g13
S'5\xe4\xc0{\x9cf9@'
p924
tp925
Rp926
sg28
g9
(g13
S'\x8f\xe6\xcd\x89\xab\xa48@'
p927
tp928
Rp929
sg32
I69
sa(dp930
g8
g9
(g13
S'\xbb\xe0\xd8\xc0K\xb8\xd2?'
p931
tp932
Rp933
sg19
I30
sg20
g9
(g13
S';W\xc2\x14\xc9l8@'
p934
tp935
Rp936
sg24
g9
(g13
S'!\x8e\xe6sT_9@'
p937
tp938
Rp939
sg28
g9
(g13
S'\xcf\xb9Q\xab\x0e\xe38@'
p940
tp941
Rp942
sg32
I70
sa(dp943
g8
g9
(g13
S'\xfdM\xa7\xbf.7\xdf?'
p944
tp945
Rp946
sg19
I30
sg20
g9
(g13
S'\\\x1b\xfc\xc0\xfcR7@'
p947
tp948
Rp949
sg24
g9
(g13
S'\x93\x0c\xff\xd4\xe8x:@'
p950
tp951
Rp952
sg28
g9
(g13
S'\x91\x03\xcc\xbe\x07\xfc8@'
p953
tp954
Rp955
sg32
I71
sa(dp956
g8
g9
(g13
S'\xc4\xeamm\xf1\x95\xdb?'
p957
tp958
Rp959
sg19
I30
sg20
g9
(g13
S'\xbd\xf2\x1e\x01fw8@'
p960
tp961
Rp962
sg24
g9
(g13
S'\xddX\x88\xfc\x17\x95:@'
p963
tp964
Rp965
sg28
g9
(g13
S'\x9a\x1bG\xf2\xa3\x019@'
p966
tp967
Rp968
sg32
I72
sa(dp969
g8
g9
(g13
S'A=\xcd\xf9\xab\x00\xe5?'
p970
tp971
Rp972
sg19
I30
sg20
g9
(g13
S'&3\x00\xc9Yp8@'
p973
tp974
Rp975
sg24
g9
(g13
S'\xe7\xbb\x96\xa5\xd4\xde:@'
p976
tp977
Rp978
sg28
g9
(g13
S'\x0bi\xabq\x0379@'
p979
tp980
Rp981
sg32
I73
sa(dp982
g8
g9
(g13
S'X\x05\xd0\xdd\xc4e\xeb?'
p983
tp984
Rp985
sg19
I30
sg20
g9
(g13
S'\xf1\x10>\x8c\xd8j8@'
p986
tp987
Rp988
sg24
g9
(g13
S'>\x99ah\x12\xed:@'
p989
tp990
Rp991
sg28
g9
(g13
S'\n-\xac\xb6\xf1i9@'
p992
tp993
Rp994
sg32
I74
sa(dp995
g8
g9
(g13
S'Iu\xe51\xe9Q\xed?'
p996
tp997
Rp998
sg19
I30
sg20
g9
(g13
S'>\xfa\x00\x10\xe5)7@'
p999
tp1000
Rp1001
sg24
g9
(g13
S'\xc1\xfb;\n\x86\x0f;@'
p1002
tp1003
Rp1004
sg28
g9
(g13
S'\xa2,\x844"\xb99@'
p1005
tp1006
Rp1007
sg32
I75
sa(dp1008
g8
g9
(g13
S'\xbaT\xb3\x87*\xd9\xd4?'
p1009
tp1010
Rp1011
sg19
I30
sg20
g9
(g13
S'\xfe>\x95a\x8b\xfd9@'
p1012
tp1013
Rp1014
sg24
g9
(g13
S'\x95[?\xf8\xbb%;@'
p1015
tp1016
Rp1017
sg28
g9
(g13
S'\x0b\xce\xa7%\x11\x86:@'
p1018
tp1019
Rp1020
sg32
I76
sa(dp1021
g8
g9
(g13
S'\xd0G\xee\xd2\x06\xd3\xd8?'
p1022
tp1023
Rp1024
sg19
I30
sg20
g9
(g13
S'\x1b~\xfb\xeb\xa3\xf69@'
p1025
tp1026
Rp1027
sg24
g9
(g13
S'\xc4\xb2S\x11\x00\xb8;@'
p1028
tp1029
Rp1030
sg28
g9
(g13
S'&\xd0>i\xab\x8f:@'
p1031
tp1032
Rp1033
sg32
I77
sa(dp1034
g8
g9
(g13
S'\x0e\xabz\x81J\xb3\xd5?'
p1035
tp1036
Rp1037
sg19
I30
sg20
g9
(g13
S'Z\x1a\x839B\xf39@'
p1038
tp1039
Rp1040
sg24
g9
(g13
S'\x85\x88\xe7]w*;@'
p1041
tp1042
Rp1043
sg28
g9
(g13
S'\x14\x19\x15\xb4[\xa7:@'
p1044
tp1045
Rp1046
sg32
I78
sa(dp1047
g8
g9
(g13
S'8n\xdf\xc2:\n\xdd?'
p1048
tp1049
Rp1050
sg19
I30
sg20
g9
(g13
S'A_\xed\xaaQ@9@'
p1051
tp1052
Rp1053
sg24
g9
(g13
S'\x9a7\xec\x8dO\xac;@'
p1054
tp1055
Rp1056
sg28
g9
(g13
S'ca\xda^$\x84:@'
p1057
tp1058
Rp1059
sg32
I79
sa(dp1060
g8
g9
(g13
S'\x8d\xd3e\xfa\x8fd\xda?'
p1061
tp1062
Rp1063
sg19
I30
sg20
g9
(g13
S'\xd1\xec?9\x03\x01:@'
p1064
tp1065
Rp1066
sg24
g9
(g13
S'\x1f\xc6)\xae\xe1\xb0;@'
p1067
tp1068
Rp1069
sg28
g9
(g13
S'K\xcbB\t\xdf\x9d:@'
p1070
tp1071
Rp1072
sg32
I80
sa(dp1073
g8
g9
(g13
S'\x8bHs\xde~a\xd5?'
p1074
tp1075
Rp1076
sg19
I30
sg20
g9
(g13
S'y\xdc,ls-:@'
p1077
tp1078
Rp1079
sg24
g9
(g13
S'\x93\x0f\x90\x95b\xb2;@'
p1080
tp1081
Rp1082
sg28
g9
(g13
S'\x05N\x9cX\x00\xc6:@'
p1083
tp1084
Rp1085
sg32
I81
sa(dp1086
g8
g9
(g13
S'\x9d\xa8\xde\n"\xc9\xd7?'
p1087
tp1088
Rp1089
sg19
I30
sg20
g9
(g13
S'\xed\xa2>\xa1\x7f\x939@'
p1090
tp1091
Rp1092
sg24
g9
(g13
S'I\xc9p\xe8\xefF;@'
p1093
tp1094
Rp1095
sg28
g9
(g13
S"\x7f'\x18B\xb8\xb8:@"
p1096
tp1097
Rp1098
sg32
I82
sa(dp1099
g8
g9
(g13
S'\x14\xfb\x99\x92\x13e\xdb?'
p1100
tp1101
Rp1102
sg19
I30
sg20
g9
(g13
S'\xa2\x14\x9e\xbd\xf8>:@'
p1103
tp1104
Rp1105
sg24
g9
(g13
S'T\xcb|z\xb0\xbd;@'
p1106
tp1107
Rp1108
sg28
g9
(g13
S'Ll\xc0\xb0i\x19;@'
p1109
tp1110
Rp1111
sg32
I83
sa(dp1112
g8
g9
(g13
S'\xc5\x9b?-g\xcd\xd1?'
p1113
tp1114
Rp1115
sg19
I30
sg20
g9
(g13
S'\x927\xe5N|}:@'
p1116
tp1117
Rp1118
sg24
g9
(g13
S'z\xd4Z\x92\xc9\xaa;@'
p1119
tp1120
Rp1121
sg28
g9
(g13
S'>]\xb9\xebc,;@'
p1122
tp1123
Rp1124
sg32
I84
sa(dp1125
g8
g9
(g13
S'\x08#\xb1\xd30\xf2\xcf?'
p1126
tp1127
Rp1128
sg19
I30
sg20
g9
(g13
S'o?~$Q\xee:@'
p1129
tp1130
Rp1131
sg24
g9
(g13
S'\xb8\xd2\xe7W\xdd\xba;@'
p1132
tp1133
Rp1134
sg28
g9
(g13
S'\xd7\xb4\xc3\x9e\xd5K;@'
p1135
tp1136
Rp1137
sg32
I85
sa(dp1138
g8
g9
(g13
S'K\xc7\x1cC\xf6\xa2\xd1?'
p1139
tp1140
Rp1141
sg19
I30
sg20
g9
(g13
S'_o\x833?f:@'
p1142
tp1143
Rp1144
sg24
g9
(g13
S'\x7fa&v]\xaf;@'
p1145
tp1146
Rp1147
sg28
g9
(g13
S'\x10\x957:\xd6P;@'
p1148
tp1149
Rp1150
sg32
I86
sa(dp1151
g8
g9
(g13
S'\xe9\t\xd58\x17\xde\xd1?'
p1152
tp1153
Rp1154
sg19
I30
sg20
g9
(g13
S'\xca\x98\xa2Z\xcb\xc9:@'
p1155
tp1156
Rp1157
sg24
g9
(g13
S'\x87\xd4\xe0\xd6\x13\xb5;@'
p1158
tp1159
Rp1160
sg28
g9
(g13
S'[|6\xcd\xd5B;@'
p1161
tp1162
Rp1163
sg32
I87
sa(dp1164
g8
g9
(g13
S'$A\xfb\x1a\xee\xd1\xd9?'
p1165
tp1166
Rp1167
sg19
I30
sg20
g9
(g13
S'/E[\x90n\xba:@'
p1168
tp1169
Rp1170
sg24
g9
(g13
S'\xc9KZ`\xe9\x98<@'
p1171
tp1172
Rp1173
sg28
g9
(g13
S'\x91\x1bW5\xf3Q;@'
p1174
tp1175
Rp1176
sg32
I88
sa(dp1177
g8
g9
(g13
S"'\xdf)\xe6 \x94\xde?"
p1178
tp1179
Rp1180
sg19
I30
sg20
g9
(g13
S'\xf4\xbe9\xbf\xd6\xe1:@'
p1181
tp1182
Rp1183
sg24
g9
(g13
S'zr:k\x05\xbf<@'
p1184
tp1185
Rp1186
sg28
g9
(g13
S'\xbdFV\x19\xf4{;@'
p1187
tp1188
Rp1189
sg32
I89
sa(dp1190
g8
g9
(g13
S'&k\xa0\xc3\x8a\x8c\xe6?'
p1191
tp1192
Rp1193
sg19
I30
sg20
g9
(g13
S'H:\xf4\x99f\xff:@'
p1194
tp1195
Rp1196
sg24
g9
(g13
S'\x1bgWV\x14k=@'
p1197
tp1198
Rp1199
sg28
g9
(g13
S'\x1d%^\x0b\xb3\xca;@'
p1200
tp1201
Rp1202
sg32
I90
sa(dp1203
g8
g9
(g13
S'$\x9ePP\xa4C\xe9?'
p1204
tp1205
Rp1206
sg19
I30
sg20
g9
(g13
S'fx\n\xa4\xef\xf1:@'
p1207
tp1208
Rp1209
sg24
g9
(g13
S'\x18\x89\x83sKs=@'
p1210
tp1211
Rp1212
sg28
g9
(g13
S'}A\xaa\xf7\x9f7<@'
p1213
tp1214
Rp1215
sg32
I91
sa(dp1216
g8
g9
(g13
S'\xc4\xb9\xed~9\x8f\xdf?'
p1217
tp1218
Rp1219
sg19
I30
sg20
g9
(g13
S'\x80\x15\xe7p\xb0[;@'
p1220
tp1221
Rp1222
sg24
g9
(g13
S'\xbe\xd9\xac\xea\xc9\x84=@'
p1223
tp1224
Rp1225
sg28
g9
(g13
S'\xba\x0bN\xec\xb8\xdc<@'
p1226
tp1227
Rp1228
sg32
I92
sa(dp1229
g8
g9
(g13
S'\xfb!\x879\xc6\x1e\xd6?'
p1230
tp1231
Rp1232
sg19
I30
sg20
g9
(g13
S'{\xf6"fcK<@'
p1233
tp1234
Rp1235
sg24
g9
(g13
S'\x96,\xe8\x08i\x90=@'
p1236
tp1237
Rp1238
sg28
g9
(g13
S'\xdf.e\xf8m\xf0<@'
p1239
tp1240
Rp1241
sg32
I93
sa(dp1242
g8
g9
(g13
S'4D\x12N\xd0.\xd6?'
p1243
tp1244
Rp1245
sg19
I30
sg20
g9
(g13
S'\xab\xeaI\xe1(z<@'
p1246
tp1247
Rp1248
sg24
g9
(g13
S'Zo\x13w\xa5\x93=@'
p1249
tp1250
Rp1251
sg28
g9
(g13
S'\xa4\x1d}!\x0e\x16=@'
p1252
tp1253
Rp1254
sg32
I94
sa(dp1255
g8
g9
(g13
S'\x12y.\xeb_\x02\xd8?'
p1256
tp1257
Rp1258
sg19
I30
sg20
g9
(g13
S'|0\xeb\xd3\xdb}<@'
p1259
tp1260
Rp1261
sg24
g9
(g13
S'\xecU\xe0\x83\x93\r>@'
p1262
tp1263
Rp1264
sg28
g9
(g13
S'{\x9f\xaf\xa9s#=@'
p1265
tp1266
Rp1267
sg32
I95
sa(dp1268
g8
g9
(g13
S'1\xcb\x18&\x98i\xe7?'
p1269
tp1270
Rp1271
sg19
I30
sg20
g9
(g13
S'\x11X(\x12"\xf1;@'
p1272
tp1273
Rp1274
sg24
g9
(g13
S'\x9f\x9a\xc3\x1a]&?@'
p1275
tp1276
Rp1277
sg28
g9
(g13
S'\xed~\x1f\x99(P=@'
p1278
tp1279
Rp1280
sg32
I96
sa(dp1281
g8
g9
(g13
S'\x0c\x92\x8a\xf9\xd5\x11\xe9?'
p1282
tp1283
Rp1284
sg19
I30
sg20
g9
(g13
S'\x08\xf4$\xf5\x06\x96<@'
p1285
tp1286
Rp1287
sg24
g9
(g13
S'\xc6QZ\xd8\xb6 ?@'
p1288
tp1289
Rp1290
sg28
g9
(g13
S'\xb5\xf4\xc3\x926\xde=@'
p1291
tp1292
Rp1293
sg32
I97
sa(dp1294
g8
g9
(g13
S'_%\xf2\xdb)\xec\xd6?'
p1295
tp1296
Rp1297
sg19
I30
sg20
g9
(g13
S'\x05\x91,\xb0h\xe9=@'
p1298
tp1299
Rp1300
sg24
g9
(g13
S'\xd7\x92\xc4QtW?@'
p1301
tp1302
Rp1303
sg28
g9
(g13
S'\x14\xee>\xfe\xf7t>@'
p1304
tp1305
Rp1306
sg32
I98
sa(dp1307
g8
g9
(g13
S'\x10\x86\xe3\x1c\xb6\x11\xd6?'
p1308
tp1309
Rp1310
sg19
I30
sg20
g9
(g13
S'\xd0\xe4O\x8d\x11\xf2=@'
p1311
tp1312
Rp1313
sg24
g9
(g13
S"\xd0\x8d \xed['?@"
p1314
tp1315
Rp1316
sg28
g9
(g13
S'\x06\xa1\xdb\xf5\x8a\x80>@'
p1317
tp1318
Rp1319
sg32
I99
satp1320
Rp1321
(dp1322
S'log_header'
p1323
I01
sS'header'
p1324
NsS'columns_len'
p1325
NsS'buffindex'
p1326
I0
sS'chapters'
p1327
ccollections
defaultdict
p1328
(g4
tp1329
Rp1330
sbsS'rndstate'
p1331
(I3
(L3722961913L
L662374112L
L3904233204L
L3983195855L
L2398640901L
L1983359098L
L690275160L
L1928087050L
L2980823412L
L4190896882L
L2389423836L
L1872916780L
L4270336223L
L3808871764L
L1154954410L
L4126574619L
L1262617416L
L141833419L
L2117016521L
L1266712759L
L381779953L
L3678832980L
L1152155402L
L648108617L
L337501199L
L924741781L
L49992645L
L1464717001L
L1339498790L
L2333801305L
L486692472L
L3722645515L
L2946406440L
L882469451L
L772145369L
L2066374457L
L2386927492L
L2353997865L
L2608431568L
L1481409391L
L1925751538L
L853798911L
L3367685532L
L1658976650L
L4043977878L
L1888249065L
L582174402L
L2992767783L
L3891748841L
L1924043895L
L1337871365L
L1828319903L
L3268866169L
L4239622502L
L3986742328L
L2107954417L
L1422608447L
L71346286L
L3805274056L
L452817920L
L4038557865L
L369005743L
L3656711879L
L286211973L
L227316347L
L753198616L
L3368260387L
L2307445542L
L3440140343L
L2505694957L
L2687025774L
L291733014L
L2172982071L
L2689228798L
L3981774059L
L890325538L
L3548775219L
L1222647650L
L3402802554L
L3550133479L
L2563621434L
L2259933478L
L488002884L
L2943564896L
L2942910467L
L3500000349L
L2114402052L
L2345707539L
L691979881L
L3569468725L
L3076325093L
L3761376048L
L2089128030L
L2938886784L
L2579464422L
L4040772015L
L2918148808L
L3135205032L
L2148913036L
L337466795L
L1445749181L
L885880475L
L3792252280L
L1180106448L
L3838634649L
L1120913652L
L1667475674L
L136437527L
L1416277981L
L2548265927L
L1825151370L
L785779793L
L1192935164L
L3731380720L
L2402201734L
L394623783L
L1900015502L
L1507108237L
L1235148206L
L3857523548L
L2765492430L
L457401599L
L2462906867L
L3076936121L
L638503426L
L1663389481L
L3930840515L
L793714630L
L3076001440L
L16440111L
L2945546096L
L1151676677L
L588794522L
L4089036894L
L2818950662L
L2482334738L
L1223066764L
L1777981597L
L416132751L
L830718510L
L3862246673L
L3404931598L
L4072136897L
L3726958296L
L4077800392L
L2671267577L
L1491329367L
L3333948407L
L4081453044L
L1321248533L
L83637723L
L705495123L
L4109005103L
L1827580715L
L724172644L
L328269159L
L3708804812L
L854693796L
L1300662252L
L2512388117L
L2228610845L
L66352115L
L2298221256L
L3053604915L
L2805046774L
L3492495191L
L2748148109L
L681831863L
L3059875136L
L991406192L
L2851994121L
L4186314033L
L2540828164L
L1120101416L
L3765669714L
L1181098059L
L1093321095L
L3667852342L
L625441722L
L2859475542L
L3381945717L
L1618280631L
L2693877992L
L1435767777L
L1872926617L
L1588541613L
L2807230200L
L1282700196L
L2417143152L
L1346928025L
L1226610135L
L120054834L
L1841499653L
L2689897465L
L67280688L
L2505383140L
L827136613L
L1659020012L
L3732235511L
L82866554L
L2625197724L
L3810019154L
L2319099207L
L224209965L
L2391520160L
L729507995L
L3930503782L
L1542196299L
L2539106149L
L2949214862L
L2846952821L
L1013578277L
L213133203L
L1770328296L
L1373411933L
L2163284924L
L370567116L
L1057009695L
L2688518515L
L374022905L
L3598764383L
L3093640381L
L886772654L
L457278431L
L3203460698L
L516275522L
L691205244L
L1975203788L
L152972470L
L3820545069L
L3893426677L
L3969711284L
L1789321255L
L1896386450L
L1052003093L
L1077501479L
L971670191L
L1122043052L
L2343137911L
L2710423069L
L924610283L
L3201044723L
L1857568012L
L2606479636L
L1046242226L
L716367990L
L3373979169L
L4234284093L
L2886339180L
L4199044450L
L430319435L
L315075467L
L1372098404L
L1434985645L
L2479027590L
L2332543586L
L1846494114L
L4054110905L
L3415502351L
L3625571412L
L4214886508L
L2295133996L
L2856780179L
L1041662826L
L3961259865L
L1037720991L
L2347796201L
L2324846271L
L544848898L
L2774948149L
L3411758822L
L2198852487L
L2506542987L
L3022774353L
L210636781L
L1402331635L
L2945295207L
L979535263L
L1105578589L
L226312600L
L21027794L
L3256361458L
L2170489574L
L829545567L
L2536458355L
L1856135940L
L2857324262L
L1480794936L
L2695463983L
L683936400L
L1140567914L
L1981654150L
L469413070L
L649400641L
L713744073L
L3945448212L
L3451496775L
L2927103679L
L438554212L
L1981632384L
L2106281978L
L1453328046L
L3901623655L
L1161778695L
L2881350703L
L653331607L
L1974157809L
L1526384237L
L3797953383L
L3740480123L
L1990720759L
L2360482866L
L3536949013L
L2349146316L
L852142061L
L2532357348L
L4280558789L
L1460562614L
L343336889L
L1390481545L
L4018444958L
L1679629526L
L2255444104L
L3592626157L
L1896760068L
L2813166777L
L1599972103L
L1357240011L
L1274833821L
L2262884986L
L178969984L
L3732001106L
L412206418L
L2606222220L
L2697404063L
L841492973L
L1958433854L
L637430523L
L576143213L
L940936648L
L2709414979L
L4155056594L
L2638365413L
L2495866564L
L393324939L
L1212219038L
L641974752L
L3861840780L
L257310810L
L3106721733L
L3603254946L
L3349606230L
L1545280952L
L3911263031L
L2146350235L
L2589694744L
L37659129L
L3241176376L
L1573581188L
L33620571L
L3544681366L
L933994253L
L1477170196L
L907834781L
L2578154746L
L158114184L
L1928568983L
L2302713269L
L3602461896L
L2982715002L
L3294161922L
L982520804L
L4256073712L
L3359194514L
L8758281L
L3179639665L
L3748879564L
L1730206828L
L166004950L
L3800493442L
L646989943L
L2595851823L
L2660807588L
L4150784261L
L1566199764L
L3199932193L
L1197946321L
L39363250L
L1420240540L
L2667978098L
L2121514100L
L430566564L
L1539324787L
L4086185477L
L3832262601L
L2788202606L
L2459932491L
L2492306918L
L3561511134L
L2452369885L
L4220150670L
L318673234L
L2373818180L
L380637857L
L2121133148L
L1910289116L
L2591617035L
L178916092L
L4187475184L
L1429007175L
L1314549239L
L2979214614L
L3303105569L
L956450583L
L3150333367L
L2455478300L
L3060456688L
L3574959712L
L3618400238L
L1275223461L
L3088856961L
L2109204257L
L1914101541L
L48157816L
L2857559007L
L4059105393L
L1977493654L
L3816667939L
L1233045080L
L1366259530L
L909401677L
L3533898685L
L2839130579L
L4039525535L
L1323362464L
L1033489800L
L3757154514L
L2388053254L
L2441018825L
L2098084460L
L1033114506L
L49345782L
L322633814L
L1816880782L
L2671821566L
L4018859254L
L3054003809L
L2626178949L
L2515366460L
L4052902105L
L1560523397L
L3358705961L
L2578297227L
L136001026L
L2319032848L
L829818472L
L51117859L
L860426735L
L429943932L
L832654614L
L3569696521L
L2077327054L
L2921055132L
L4092007095L
L2231100564L
L2055345167L
L3410057599L
L391726546L
L2916529146L
L2985373883L
L3421054416L
L3098432646L
L607754129L
L916313823L
L2491199531L
L2016870377L
L469325175L
L576863366L
L3865341352L
L3157040284L
L211298501L
L3778751797L
L1200758981L
L909446294L
L994468724L
L2568526444L
L3093584186L
L378876219L
L1891368380L
L1036971034L
L2231809563L
L3175886819L
L3840611558L
L2858229211L
L83113948L
L1995732462L
L2652436038L
L586091103L
L3054842086L
L779349538L
L2604288807L
L2638894308L
L4134559514L
L4005784443L
L1743233134L
L2287628966L
L3146083384L
L900279311L
L3142866820L
L1520876498L
L1965939578L
L2016673111L
L3505105908L
L2437574558L
L3120525339L
L892943431L
L2989933578L
L1602405265L
L1613657346L
L1823097326L
L2290921701L
L665413420L
L3107636226L
L793586429L
L494068413L
L3337146747L
L20390868L
L3360166135L
L2505698818L
L3663740918L
L3441678158L
L1015943045L
L3570228246L
L610755743L
L903902562L
L833245095L
L3488012521L
L3279612088L
L811307362L
L1745340904L
L2436658915L
L725375670L
L3925274440L
L495018302L
L2256608113L
L244954345L
L2560809820L
L2222309083L
L2435849039L
L774530203L
L2743090702L
L1272219182L
L2211736742L
L840140721L
L933147445L
L2167305762L
L1888883271L
L2394312858L
L2105055569L
L1151304257L
L604251553L
L2487448555L
L3884664944L
L1082609196L
L133524194L
L655430364L
L1122206568L
L2555000203L
L3937412055L
L4097886239L
L2851961919L
L2673530676L
L1807434928L
L2824648156L
L4212819338L
L3803527338L
L1330305224L
L2359688503L
L902524670L
L3704458716L
L2250499652L
L4046571324L
L2991291763L
L1047158039L
L394947658L
L2255963009L
L3739968937L
L474074518L
L3258298545L
L4173823344L
L4144802104L
L1116483266L
L741634352L
L623682818L
L4070503121L
L3230643179L
L2481259997L
L1893080046L
L22492703L
L2631656636L
L2238422194L
L1130865933L
L4113172058L
L2973551369L
L3656638813L
L3623968614L
L3685962566L
L964722035L
L2786131224L
L3942647371L
L681310325L
L264825887L
L1835763542L
L2126829082L
L2580978239L
L2996378377L
L1669310694L
L647472075L
L241546583L
L3260409177L
L2553215146L
L264581028L
L3396654589L
L1701107304L
L84L
tp1332
Ntp1333
sS'halloffame'
p1334
g3
(cdeap.tools.support
HallOfFame
p1335
c__builtin__
object
p1336
Ntp1337
Rp1338
(dp1339
S'keys'
p1340
(lp1341
g3
(cdeap.creator
FitnessMin
p1342
g1336
Ntp1343
Rp1344
(dp1345
S'wvalues'
p1346
(F31.153746433685058
tp1347
sbasS'items'
p1348
(lp1349
g3
(cdeap.creator
Individual
p1350
g5
(lp1351
F30.375047350783127
aF-2.8538993912941177
aF-0.19920965220800468
aF2.282995861275687
aF-1.4818922385734024
atp1352
Rp1353
(dp1354
S'fitness'
p1355
g1344
sbasS'maxsize'
p1356
I1
sS'similar'
p1357
coperator
eq
p1358
sbsS'population'
p1359
(lp1360
g3
(g1350
g5
(lp1361
F30.375047350783127
aF-2.8538993912941177
aF0.2137875007089063
aF1.645443883191128
aF-1.4818922385734024
atp1362
Rp1363
(dp1364
g1355
g3
(g1342
g1336
Ntp1365
Rp1366
(dp1367
g1346
(F30.972251511064734
tp1368
sbsbag3
(g1350
g5
(lp1369
F29.941717832325633
aF-2.8538993912941177
aF-0.19920965220800468
aF1.645443883191128
aF-1.4818922385734024
atp1370
Rp1371
(dp1372
g1355
g3
(g1342
g1336
Ntp1373
Rp1374
(dp1375
g1346
(F30.73835717187824
tp1376
sbsbag3
(g1350
g5
(lp1377
F29.941717832325633
aF-1.0994321212916325
aF2.2393605450276537
aF3.7534554959928665
aF-0.8838717341492979
atp1378
Rp1379
(dp1380
g1355
g3
(g1342
g1336
Ntp1381
Rp1382
(dp1383
g1346
(F30.45528263405918
tp1384
sbsbag3
(g1350
g5
(lp1385
F29.941717832325633
aF-2.8538993912941177
aF-0.19920965220800468
aF1.645443883191128
aF-1.4818922385734024
atp1386
Rp1387
(dp1388
g1355
g3
(g1342
g1336
Ntp1389
Rp1390
(dp1391
g1346
(F30.641703321563927
tp1392
sbsbag3
(g1350
g5
(lp1393
F30.375047350783127
aF-2.8538993912941177
aF-0.19920965220800468
aF1.645443883191128
aF-1.4818922385734024
atp1394
Rp1395
(dp1396
g1355
g3
(g1342
g1336
Ntp1397
Rp1398
(dp1399
g1346
(F31.05737776893993
tp1400
sbsbag1363
ag1379
ag3
(g1350
g5
(lp1401
F30.375047350783127
aF-2.8538993912941177
aF-0.19920965220800468
aF2.282995861275687
aF-1.4818922385734024
atp1402
Rp1403
(dp1404
g1355
g3
(g1342
g1336
Ntp1405
Rp1406
(dp1407
g1346
g1347
sbsbag1395
ag3
(g1350
g5
(lp1408
F29.941717832325633
aF-2.8538993912941177
aF-0.19920965220800468
aF1.645443883191128
aF-0.6186338078877813
atp1409
Rp1410
(dp1411
g1355
g3
(g1342
g1336
Ntp1412
Rp1413
(dp1414
g1346
(F30.33623788893083
tp1415
sbsbag1395
ag1403
ag1403
ag1395
ag3
(g1350
g5
(lp1416
F29.941717832325633
aF-2.8538993912941177
aF-0.19920965220800468
aF1.645443883191128
aF-1.4818922385734024
atp1417
Rp1418
(dp1419
g1355
g3
(g1342
g1336
Ntp1420
Rp1421
(dp1422
g1346
(F30.90819730509862
tp1423
sbsbag3
(g1350
g5
(lp1424
F30.48801022095212
aF-2.1760592225462356
aF-0.19920965220800468
aF2.0253581656662236
aF-1.4818922385734024
atp1425
Rp1426
(dp1427
g1355
g3
(g1342
g1336
Ntp1428
Rp1429
(dp1430
g1346
(F31.059848151304116
tp1431
sbsbag3
(g1350
g5
(lp1432
F30.375047350783127
aF-2.8538993912941177
aF-0.19920965220800468
aF1.645443883191128
aF-1.4818922385734024
atp1433
Rp1434
(dp1435
g1355
g3
(g1342
g1336
Ntp1436
Rp1437
(dp1438
g1346
(F30.646189763462008
tp1439
sbsbag3
(g1350
g5
(lp1440
F29.941717832325633
aF-2.8538993912941177
aF-0.19920965220800468
aF3.7534554959928665
aF-0.6186338078877813
atp1441
Rp1442
(dp1443
g1355
g3
(g1342
g1336
Ntp1444
Rp1445
(dp1446
g1346
(F30.45078561464719
tp1447
sbsbag3
(g1350
g5
(lp1448
F29.941717832325633
aF-2.8538993912941177
aF-0.19920965220800468
aF3.7534554959928665
aF-0.6186338078877813
atp1449
Rp1450
(dp1451
g1355
g3
(g1342
g1336
Ntp1452
Rp1453
(dp1454
g1346
(F30.682803742633403
tp1455
sbsbag1371
ag1450
ag1363
ag1363
ag1403
ag3
(g1350
g5
(lp1456
F29.956549425527033
aF-2.8538993912941177
aF-0.19920965220800468
aF1.645443883191128
aF-1.4818922385734024
atp1457
Rp1458
(dp1459
g1355
g3
(g1342
g1336
Ntp1460
Rp1461
(dp1462
g1346
(F30.261885212800465
tp1463
sbsbag1426
ag3
(g1350
g5
(lp1464
F29.941717832325633
aF-2.8538993912941177
aF-0.19920965220800468
aF3.7534554959928665
aF-0.6186338078877813
atp1465
Rp1466
(dp1467
g1355
g3
(g1342
g1336
Ntp1468
Rp1469
(dp1470
g1346
(F30.1875759769755
tp1471
sbsbag3
(g1350
g5
(lp1472
F29.941717832325633
aF-2.8538993912941177
aF-0.19920965220800468
aF1.645443883191128
aF-1.0029620585362529
atp1473
Rp1474
(dp1475
g1355
g3
(g1342
g1336
Ntp1476
Rp1477
(dp1478
g1346
(F30.849244516135595
tp1479
sbsbag1363
ag1474
as.