(dp0
S'generation'
p1
I99
sS'logbook'
p2
ccopy_reg
_reconstructor
p3
(cdeap.tools.support
Logbook
p4
c__builtin__
list
p5
(lp6
(dp7
S'std'
p8
cnumpy.core.multiarray
scalar
p9
(cnumpy
dtype
p10
(S'f8'
p11
I0
I1
tp12
Rp13
(I3
S'<'
p14
NNNI-1
I-1
I0
tp15
bS'!\xb9\x82\xf3\xaf\x98\xdc?'
p16
tp17
Rp18
sS'evals'
p19
I30
sS'min'
p20
g9
(g13
S'\xd8\xe8j\xccI\xce\xd5?'
p21
tp22
Rp23
sS'max'
p24
g9
(g13
S'\xdbJ%-\xbe\x81\x06@'
p25
tp26
Rp27
sS'avg'
p28
g9
(g13
S'\x15V\x94\x8d\xfa\xaf\xf7?'
p29
tp30
Rp31
sS'gen'
p32
I0
sa(dp33
g8
g9
(g13
S'\x9a\xfa\x89{\xcd\xfb\xd5?'
p34
tp35
Rp36
sg19
I30
sg20
g9
(g13
S'\xe0\xf0F\xc76\xa2\xef?'
p37
tp38
Rp39
sg24
g9
(g13
S'\xd3Y\x86\x05\x14"\x05@'
p40
tp41
Rp42
sg28
g9
(g13
S'\xac\x8bJ\xe2o\x9a\xf8?'
p43
tp44
Rp45
sg32
I1
sa(dp46
g8
g9
(g13
S'Po*\x89\x9f\xa5\xe1?'
p47
tp48
Rp49
sg19
I30
sg20
g9
(g13
S'3\xf66\x08\x9e\xaa\xed?'
p50
tp51
Rp52
sg24
g9
(g13
S'c\xfd\xb8r\xd6a\x0b@'
p53
tp54
Rp55
sg28
g9
(g13
S'!\xee\xc1\xe4\xdd\xe8\xfa?'
p56
tp57
Rp58
sg32
I2
sa(dp59
g8
g9
(g13
S'\xcd\xc9\xd6U\x8d\x83\xe3?'
p60
tp61
Rp62
sg19
I30
sg20
g9
(g13
S'\xee\xf4\xc0:\xdb>\xf0?'
p63
tp64
Rp65
sg24
g9
(g13
S'.\xedb\xa9/\xaa\x0c@'
p66
tp67
Rp68
sg28
g9
(g13
S'\xa1\xf5\t\xb2)b\xff?'
p69
tp70
Rp71
sg32
I3
sa(dp72
g8
g9
(g13
S'\xa4\x84u\x07\xfb\xd4\xe4?'
p73
tp74
Rp75
sg19
I30
sg20
g9
(g13
S'\x02^\xac\xb5D\x92\xf3?'
p76
tp77
Rp78
sg24
g9
(g13
S'\ro6\n\x19\xc8\x0c@'
p79
tp80
Rp81
sg28
g9
(g13
S';Y\x85w\x00\x1a\x02@'
p82
tp83
Rp84
sg32
I4
sa(dp85
g8
g9
(g13
S'\x14\xb9v\x82\xefJ\xe2?'
p86
tp87
Rp88
sg19
I30
sg20
g9
(g13
S'\xc6\xe3\xb1ZO\xf1\xfe?'
p89
tp90
Rp91
sg24
g9
(g13
S'\xd0/z\x060\xab\x0e@'
p92
tp93
Rp94
sg28
g9
(g13
S'!\x19\x0f\xed\xecM\x07@'
p95
tp96
Rp97
sg32
I5
sa(dp98
g8
g9
(g13
S'\xbe\xfe\x89\x07\x8aa\xe1?'
p99
tp100
Rp101
sg19
I30
sg20
g9
(g13
S'\x1eG\xd2\xd5\xe1\x9c\xff?'
p102
tp103
Rp104
sg24
g9
(g13
S'\x86/{\xefN\x00\x16@'
p105
tp106
Rp107
sg28
g9
(g13
S'\x83{\x01\xfc~\xee\n@'
p108
tp109
Rp110
sg32
I6
sa(dp111
g8
g9
(g13
S'9\x0c\xde\xd4L\xcc\xe6?'
p112
tp113
Rp114
sg19
I30
sg20
g9
(g13
S'9so \x0b[\x02@'
p115
tp116
Rp117
sg24
g9
(g13
S'\xda\xfd\xecfb~\x17@'
p118
tp119
Rp120
sg28
g9
(g13
S'\xbf\xbb\xfd\x97\xa2f\x0c@'
p121
tp122
Rp123
sg32
I7
sa(dp124
g8
g9
(g13
S'\x07,]e6+\xe8?'
p125
tp126
Rp127
sg19
I30
sg20
g9
(g13
S'\x86\x8f\xa4\xeb,\xf1\x06@'
p128
tp129
Rp130
sg24
g9
(g13
S'\xbd\x81,\xef6\xac\x17@'
p131
tp132
Rp133
sg28
g9
(g13
S'5\x93\xd9\xa4\xf7p\r@'
p134
tp135
Rp136
sg32
I8
sa(dp137
g8
g9
(g13
S'\xc0\xaf\xfa-\x98\x8b\xed?'
p138
tp139
Rp140
sg19
I30
sg20
g9
(g13
S'\xdc\xccL{\xfd\\\x08@'
p141
tp142
Rp143
sg24
g9
(g13
S'\xe4f)\xf6F\xbd\x17@'
p144
tp145
Rp146
sg28
g9
(g13
S"\xbeA!g\xe0'\x11@"
p147
tp148
Rp149
sg32
I9
sa(dp150
g8
g9
(g13
S'\xf4\xdc \x8b\xa9\x9c\xe9?'
p151
tp152
Rp153
sg19
I30
sg20
g9
(g13
S"\x0cA'\xfc\xc1Z\t@"
p154
tp155
Rp156
sg24
g9
(g13
S' \xc7\x13\\$\x7f\x18@'
p157
tp158
Rp159
sg28
g9
(g13
S'\n3\xcf3\xc5e\x13@'
p160
tp161
Rp162
sg32
I10
sa(dp163
g8
g9
(g13
S'F\xa8\xb0\x16\xa5\xd7\xe0?'
p164
tp165
Rp166
sg19
I30
sg20
g9
(g13
S'\xc1\x9b(\xb7\x06\xbd\x08@'
p167
tp168
Rp169
sg24
g9
(g13
S'\xba-\xc00\xc6\xa9\x17@'
p170
tp171
Rp172
sg28
g9
(g13
S'\xe2\x10\xff\xb3\xae\xcb\x14@'
p173
tp174
Rp175
sg32
I11
sa(dp176
g8
g9
(g13
S'tc\xeb\xbd\xa3\x08\xde?'
p177
tp178
Rp179
sg19
I30
sg20
g9
(g13
S'\xf66h^\x96\xd4\x13@'
p180
tp181
Rp182
sg24
g9
(g13
S'l\xc7\xe5C\xff7\x1d@'
p183
tp184
Rp185
sg28
g9
(g13
S'Y0$\x86\xfb\xc1\x15@'
p186
tp187
Rp188
sg32
I12
sa(dp189
g8
g9
(g13
S'\xe7\xf2\xe2T\xe7\xc5\xe8?'
p190
tp191
Rp192
sg19
I30
sg20
g9
(g13
S'\x12\xd7\x0c\x15\x0cl\x10@'
p193
tp194
Rp195
sg24
g9
(g13
S'\xa8\xed\xd2\xef\x94A @'
p196
tp197
Rp198
sg28
g9
(g13
S'Wc@-!\xd2\x16@'
p199
tp200
Rp201
sg32
I13
sa(dp202
g8
g9
(g13
S'D\xd37;\xe7-\xe9?'
p203
tp204
Rp205
sg19
I30
sg20
g9
(g13
S'\xc4i\xdb\xa6Ny\x14@'
p206
tp207
Rp208
sg24
g9
(g13
S')\xb4Z\xd6\xc4B @'
p209
tp210
Rp211
sg28
g9
(g13
S'n\x10j\xcc\x8a\x13\x19@'
p212
tp213
Rp214
sg32
I14
sa(dp215
g8
g9
(g13
S'\xc3\\\xe2\x8c\xd6\xb3\xe2?'
p216
tp217
Rp218
sg19
I30
sg20
g9
(g13
S'\xaa\xa4\xa3\xa2\x92\xb6\x16@'
p219
tp220
Rp221
sg24
g9
(g13
S"\xfe\x05\x08'i) @"
p222
tp223
Rp224
sg28
g9
(g13
S"Z\x03\x05\xcb\x19'\x1c@"
p225
tp226
Rp227
sg32
I15
sa(dp228
g8
g9
(g13
S'\x1dO\x99gk\xc5\xe1?'
p229
tp230
Rp231
sg19
I30
sg20
g9
(g13
S'K$\xab\xfe\xa9z\x19@'
p232
tp233
Rp234
sg24
g9
(g13
S'\x02\xb7+\xe374 @'
p235
tp236
Rp237
sg28
g9
(g13
S'K\xe1\x93T\x1bd\x1d@'
p238
tp239
Rp240
sg32
I16
sa(dp241
g8
g9
(g13
S'\xb3\xd8\x995\\;\xd3?'
p242
tp243
Rp244
sg19
I30
sg20
g9
(g13
S'\\8X\xe5\x9f\x94\x1c@'
p245
tp246
Rp247
sg24
g9
(g13
S'\xe9\xd9\x94\xb5\x91\x1c @'
p248
tp249
Rp250
sg28
g9
(g13
S'\x92\xf6P\n2c\x1e@'
p251
tp252
Rp253
sg32
I17
sa(dp254
g8
g9
(g13
S'T\xab\xf6\xfc\xc8w\xdc?'
p255
tp256
Rp257
sg19
I30
sg20
g9
(g13
S'O\xc7\xadH\xd7\xc1\x1c@'
p258
tp259
Rp260
sg24
g9
(g13
S'O`\x12|Y\xe5"@'
p261
tp262
Rp263
sg28
g9
(g13
S'\x9e\xf5\x8a\xef\xcc\x06\x1f@'
p264
tp265
Rp266
sg32
I18
sa(dp267
g8
g9
(g13
S'\x11\xebn\x19b_\xe6?'
p268
tp269
Rp270
sg19
I30
sg20
g9
(g13
S'\xb2\xd2\x1f\x04V\x18\x17@'
p271
tp272
Rp273
sg24
g9
(g13
S'\x8a8W?\x08\xe6"@'
p274
tp275
Rp276
sg28
g9
(g13
S'iC\xac\xfa>\x0c\x1f@'
p277
tp278
Rp279
sg32
I19
sa(dp280
g8
g9
(g13
S'z\xbf\xc5\xb4w|\xeb?'
p281
tp282
Rp283
sg19
I30
sg20
g9
(g13
S'\x0b\xc8[oF]\x1b@'
p284
tp285
Rp286
sg24
g9
(g13
S'\x95\xaf\xa9\xee\xd55#@'
p287
tp288
Rp289
sg28
g9
(g13
S'K\x0c\x93\x95(B @'
p290
tp291
Rp292
sg32
I20
sa(dp293
g8
g9
(g13
S'\xceQU\xfa\xb6\x08\xe5?'
p294
tp295
Rp296
sg19
I30
sg20
g9
(g13
S'Q\xf5\x17\x08\xd6v\x1d@'
p297
tp298
Rp299
sg24
g9
(g13
S'\x87\xb1M\xe0\xcb/#@'
p300
tp301
Rp302
sg28
g9
(g13
S'MO^\xf6\x10o!@'
p303
tp304
Rp305
sg32
I21
sa(dp306
g8
g9
(g13
S'\x115.\xfb\x92!\xd3?'
p307
tp308
Rp309
sg19
I30
sg20
g9
(g13
S'k\x12\x85S\x02? @'
p310
tp311
Rp312
sg24
g9
(g13
S'\x10\xd0\x01\xd0\x18\x1d#@'
p313
tp314
Rp315
sg28
g9
(g13
S'\x1b\xed\x04\xfe[\x03"@'
p316
tp317
Rp318
sg32
I22
sa(dp319
g8
g9
(g13
S'\x81\xf3*R\xd6{\xd5?'
p320
tp321
Rp322
sg19
I30
sg20
g9
(g13
S'\xf8Nl\x1e\xa2;!@'
p323
tp324
Rp325
sg24
g9
(g13
S'4\xb0M}y:$@'
p326
tp327
Rp328
sg28
g9
(g13
S'\xden1\xabp]"@'
p329
tp330
Rp331
sg32
I23
sa(dp332
g8
g9
(g13
S'\x93d\xf5}k\xa6\xdf?'
p333
tp334
Rp335
sg19
I30
sg20
g9
(g13
S"\xb4\xed'`&\xf7 @"
p336
tp337
Rp338
sg24
g9
(g13
S'\xdcna\xecN)%@'
p339
tp340
Rp341
sg28
g9
(g13
S'\xaeSY\x8b\xfdf"@'
p342
tp343
Rp344
sg32
I24
sa(dp345
g8
g9
(g13
S'C\x8dy\x80~H\xe4?'
p346
tp347
Rp348
sg19
I30
sg20
g9
(g13
S'\x1cO\xcdf\xb4W!@'
p349
tp350
Rp351
sg24
g9
(g13
S'\x0f3\x9c\xc0\xd2(&@'
p352
tp353
Rp354
sg28
g9
(g13
S'\xaf,\xc2ZY\x0e#@'
p355
tp356
Rp357
sg32
I25
sa(dp358
g8
g9
(g13
S'TF\x12\xb9q\xeb\xe5?'
p359
tp360
Rp361
sg19
I30
sg20
g9
(g13
S'X\x0e\x16\x98\xafF!@'
p362
tp363
Rp364
sg24
g9
(g13
S"|\xe7\xdd\xf1=$'@"
p365
tp366
Rp367
sg28
g9
(g13
S'\x1a\x96\xe7\x02\xc2($@'
p368
tp369
Rp370
sg32
I26
sa(dp371
g8
g9
(g13
S'\x07\x86\x13Y&D\xe0?'
p372
tp373
Rp374
sg19
I30
sg20
g9
(g13
S'\x97Z&g\xf6\x82#@'
p375
tp376
Rp377
sg24
g9
(g13
S"\xbe\x83Y\xcb\xbc&'@"
p378
tp379
Rp380
sg28
g9
(g13
S'\x9a>\xdd\x0f\x8fd%@'
p381
tp382
Rp383
sg32
I27
sa(dp384
g8
g9
(g13
S'!w\x99%4\xe0\xd8?'
p385
tp386
Rp387
sg19
I30
sg20
g9
(g13
S'w\xfa\x12Y\x05\xf0#@'
p388
tp389
Rp390
sg24
g9
(g13
S"\xe9z\x82\xafo>'@"
p391
tp392
Rp393
sg28
g9
(g13
S'Pa\xdcX\xe2\x1d&@'
p394
tp395
Rp396
sg32
I28
sa(dp397
g8
g9
(g13
S'\x0e\x89J\x1dO.\xd2?'
p398
tp399
Rp400
sg19
I30
sg20
g9
(g13
S'cM\x06q\x9aZ%@'
p401
tp402
Rp403
sg24
g9
(g13
S"\xf3i\xc1v\x99\x8d'@"
p404
tp405
Rp406
sg28
g9
(g13
S"'+\xdbwMB&@"
p407
tp408
Rp409
sg32
I29
sa(dp410
g8
g9
(g13
S'l\x87\x7fQ8y\xdc?'
p411
tp412
Rp413
sg19
I30
sg20
g9
(g13
S'\xe6?\x16\x8e\xf6\xe3$@'
p414
tp415
Rp416
sg24
g9
(g13
S'\x05]\x95\x0f\xee\x99(@'
p417
tp418
Rp419
sg28
g9
(g13
S'{\xf5\x03\x14\x9a\x8f&@'
p420
tp421
Rp422
sg32
I30
sa(dp423
g8
g9
(g13
S'nm\x83\x98\x84p\xdc?'
p424
tp425
Rp426
sg19
I30
sg20
g9
(g13
S'\xe8\xf9\x81D\x1a\\%@'
p427
tp428
Rp429
sg24
g9
(g13
S'\xe6\xb3\xdf\x1d\xc1\xcf(@'
p430
tp431
Rp432
sg28
g9
(g13
S'k6"s\x1b\x94\'@'
p433
tp434
Rp435
sg32
I31
sa(dp436
g8
g9
(g13
S'\xe7A\x99\xb9P\x96\xd2?'
p437
tp438
Rp439
sg19
I30
sg20
g9
(g13
S'w6\x05\xd9\xa5\xee&@'
p440
tp441
Rp442
sg24
g9
(g13
S'k%\xf4\xef]\xd1(@'
p443
tp444
Rp445
sg28
g9
(g13
S"\x1b\xa5\xf9'\xd0\xb7'@"
p446
tp447
Rp448
sg32
I32
sa(dp449
g8
g9
(g13
S'U\xebm\x87l\x97\xd4?'
p450
tp451
Rp452
sg19
I30
sg20
g9
(g13
S'\x17~\xd7\x95\x0e\xf5%@'
p453
tp454
Rp455
sg24
g9
(g13
S'\x074\x10\xa1\x13\xc3(@'
p456
tp457
Rp458
sg28
g9
(g13
S"\xa2o\x87\x8e\\\xe5'@"
p459
tp460
Rp461
sg32
I33
sa(dp462
g8
g9
(g13
S'\xa3UJ\x02\xc5\xea\xd7?'
p463
tp464
Rp465
sg19
I30
sg20
g9
(g13
S'b\xd7\xe0\x05\x08P%@'
p466
tp467
Rp468
sg24
g9
(g13
S'\xc2E\x1f\x85\xc2\xe2(@'
p469
tp470
Rp471
sg28
g9
(g13
S"\x1a:\xf7=\xe2\xfe'@"
p472
tp473
Rp474
sg32
I34
sa(dp475
g8
g9
(g13
S'eqH_\xc1~\xe1?'
p476
tp477
Rp478
sg19
I30
sg20
g9
(g13
S'/\xa8\xee\x82\xbbI#@'
p479
tp480
Rp481
sg24
g9
(g13
S'\x88\x0cm\xdaC\xe8(@'
p482
tp483
Rp484
sg28
g9
(g13
S"\x80\x8e=\xa0\x9a\xc8'@"
p485
tp486
Rp487
sg32
I35
sa(dp488
g8
g9
(g13
S'\x7f\x9a\x88+p\x1b\xd9?'
p489
tp490
Rp491
sg19
I30
sg20
g9
(g13
S'\xe3\xba \x97\xcaC&@'
p492
tp493
Rp494
sg24
g9
(g13
S'`W7\x83\x97\xe3)@'
p495
tp496
Rp497
sg28
g9
(g13
S'k\xe7\xb0\xbfx\x1f(@'
p498
tp499
Rp500
sg32
I36
sa(dp501
g8
g9
(g13
S'\xa8W\xb8\xab\xc6H\xd9?'
p502
tp503
Rp504
sg19
I30
sg20
g9
(g13
S'B\xc8\x0eV4\xe4%@'
p505
tp506
Rp507
sg24
g9
(g13
S'\xac\xcc\x19*\xbb\x02*@'
p508
tp509
Rp510
sg28
g9
(g13
S'3g7\n\x82*(@'
p511
tp512
Rp513
sg32
I37
sa(dp514
g8
g9
(g13
S'a\x92\x1f\x1e\xc6P\xd9?'
p515
tp516
Rp517
sg19
I30
sg20
g9
(g13
S'\x9eI\x19\xe3\xb4\xf3&@'
p518
tp519
Rp520
sg24
g9
(g13
S'\xcd\xf9\xe6%]\xa8)@'
p521
tp522
Rp523
sg28
g9
(g13
S'P\x1c\xbc\xf8J"(@'
p524
tp525
Rp526
sg32
I38
sa(dp527
g8
g9
(g13
S'\xd3\x84r\xff\x17\x0f\xda?'
p528
tp529
Rp530
sg19
I30
sg20
g9
(g13
S'lQa6\xfe\xf4&@'
p531
tp532
Rp533
sg24
g9
(g13
S's&w\xf4\xe5\xe3*@'
p534
tp535
Rp536
sg28
g9
(g13
S'\xeb\xf0\x7f\xf5\xc5\xc3(@'
p537
tp538
Rp539
sg32
I39
sa(dp540
g8
g9
(g13
S'\rF\x89i\x84a\xdf?'
p541
tp542
Rp543
sg19
I30
sg20
g9
(g13
S"fz\xf0%\xb4U'@"
p544
tp545
Rp546
sg24
g9
(g13
S'\xdcm\x864\xe5 +@'
p547
tp548
Rp549
sg28
g9
(g13
S'\xdf5\xb0k\x90N)@'
p550
tp551
Rp552
sg32
I40
sa(dp553
g8
g9
(g13
S'\xb9doW\xa5[\xda?'
p554
tp555
Rp556
sg19
I30
sg20
g9
(g13
S'\xf8m2\x96%T(@'
p557
tp558
Rp559
sg24
g9
(g13
S"P\xa9'YA\xa6+@"
p560
tp561
Rp562
sg28
g9
(g13
S'Zl]\x00F\xe7)@'
p563
tp564
Rp565
sg32
I41
sa(dp566
g8
g9
(g13
S'f\x94\x83\x9aA\x1c\xdd?'
p567
tp568
Rp569
sg19
I30
sg20
g9
(g13
S"R\xc5:\xfc\x13\xd1'@"
p570
tp571
Rp572
sg24
g9
(g13
S'\x85\xa3\x94\x8d\x9e\x95+@'
p573
tp574
Rp575
sg28
g9
(g13
S'^0\xd9\xf1w\x1e*@'
p576
tp577
Rp578
sg32
I42
sa(dp579
g8
g9
(g13
S'9Y\x88O0\xd1\xd7?'
p580
tp581
Rp582
sg19
I30
sg20
g9
(g13
S'\xfe\xab\xd0\xa8k\xe7(@'
p583
tp584
Rp585
sg24
g9
(g13
S'\xb2\x81w\xa16\xb6,@'
p586
tp587
Rp588
sg28
g9
(g13
S'c\xe3\x85\xb2\xe6\x9b*@'
p589
tp590
Rp591
sg32
I43
sa(dp592
g8
g9
(g13
S'\xb8-z\xa9Q\x92\xdc?'
p593
tp594
Rp595
sg19
I30
sg20
g9
(g13
S'L\x1f\x16\xd5\xc2\xdf)@'
p596
tp597
Rp598
sg24
g9
(g13
S'u0\x95^\xc6\x8d.@'
p599
tp600
Rp601
sg28
g9
(g13
S',X\xd6\xd8\xee6+@'
p602
tp603
Rp604
sg32
I44
sa(dp605
g8
g9
(g13
S'\xe2\xe9\xa9\xd51\x07\xe4?'
p606
tp607
Rp608
sg19
I30
sg20
g9
(g13
S'\xac\xb1\x80x\xe3\xe7)@'
p609
tp610
Rp611
sg24
g9
(g13
S'-\x0e\x82d\xc9\x1e.@'
p612
tp613
Rp614
sg28
g9
(g13
S'\xc6\xa4\x13I\xc4N+@'
p615
tp616
Rp617
sg32
I45
sa(dp618
g8
g9
(g13
S'\xd0\x1a\xb4qM\x05\xee?'
p619
tp620
Rp621
sg19
I30
sg20
g9
(g13
S'?\xb4\x01&\r\xb8)@'
p622
tp623
Rp624
sg24
g9
(g13
S'\xe4\xe3!\xd7 \xed0@'
p625
tp626
Rp627
sg28
g9
(g13
S'\xab\xfc\xf5|\xb4\x94,@'
p628
tp629
Rp630
sg32
I46
sa(dp631
g8
g9
(g13
S'\xb8U.i!k\xf1?'
p632
tp633
Rp634
sg19
I30
sg20
g9
(g13
S'$>\xaaKd\xb1)@'
p635
tp636
Rp637
sg24
g9
(g13
S'\x80zZ\x82\x8f\xff1@'
p638
tp639
Rp640
sg28
g9
(g13
S'@\x1a\xdd\xa8d).@'
p641
tp642
Rp643
sg32
I47
sa(dp644
g8
g9
(g13
S'\x93|\xeb|\xc0\\\xee?'
p645
tp646
Rp647
sg19
I30
sg20
g9
(g13
S'\x15\xc4\x19,>\n-@'
p648
tp649
Rp650
sg24
g9
(g13
S'^\xe9\xb9"\xdf\xc51@'
p651
tp652
Rp653
sg28
g9
(g13
S'Tv\xb9MG\xeb.@'
p654
tp655
Rp656
sg32
I48
sa(dp657
g8
g9
(g13
S'C:\xa4*\xe6\x98\xf0?'
p658
tp659
Rp660
sg19
I30
sg20
g9
(g13
S'C\x11\xb5\xb9\xba\x08-@'
p661
tp662
Rp663
sg24
g9
(g13
S',1\xb9F)\xec1@'
p664
tp665
Rp666
sg28
g9
(g13
S'V\x07\x87`_\x1c0@'
p667
tp668
Rp669
sg32
I49
sa(dp670
g8
g9
(g13
S'\xb1\xceF\\\xb0\xbc\xe5?'
p671
tp672
Rp673
sg19
I30
sg20
g9
(g13
S'>s\xc4\xab\xa3\x0e.@'
p674
tp675
Rp676
sg24
g9
(g13
S'q\xbf\xd6\xe8*\x1e2@'
p677
tp678
Rp679
sg28
g9
(g13
S'\xdcL\xdaa\x9f\xec0@'
p680
tp681
Rp682
sg32
I50
sa(dp683
g8
g9
(g13
S'YY\xb0+\xe10\xe1?'
p684
tp685
Rp686
sg19
I30
sg20
g9
(g13
S'}\x80\xd8,CC0@'
p687
tp688
Rp689
sg24
g9
(g13
S'eG\xc3E\xdf\x163@'
p690
tp691
Rp692
sg28
g9
(g13
S'\xa9Qn\x85\x0f\x8e1@'
p693
tp694
Rp695
sg32
I51
sa(dp696
g8
g9
(g13
S'k\xf3Fo\xa3\xb2\xe3?'
p697
tp698
Rp699
sg19
I30
sg20
g9
(g13
S'T\x9dh\x03\xa6\xb40@'
p700
tp701
Rp702
sg24
g9
(g13
S'\xb091S\x19\xe92@'
p703
tp704
Rp705
sg28
g9
(g13
S'-\xc3\x00\xb7\xe0\xae1@'
p706
tp707
Rp708
sg32
I52
sa(dp709
g8
g9
(g13
S'\xd4\xb6\xe2\xaa$\xbc\xe0?'
p710
tp711
Rp712
sg19
I30
sg20
g9
(g13
S'^\x85\xa4sgH1@'
p713
tp714
Rp715
sg24
g9
(g13
S'\x8d\xe9puZ=3@'
p716
tp717
Rp718
sg28
g9
(g13
S's\xc2\x99\xf3\x9b\x1d2@'
p719
tp720
Rp721
sg32
I53
sa(dp722
g8
g9
(g13
S'%]\xca5D\x83\xdf?'
p723
tp724
Rp725
sg19
I30
sg20
g9
(g13
S'X\xfb\x9e\x86Q51@'
p726
tp727
Rp728
sg24
g9
(g13
S'y\xc4\x1c\x1c`C3@'
p729
tp730
Rp731
sg28
g9
(g13
S'7(\x86\xde\xe6|2@'
p732
tp733
Rp734
sg32
I54
sa(dp735
g8
g9
(g13
S'\x0b\xfb\x83\x1e\x10~\xdc?'
p736
tp737
Rp738
sg19
I30
sg20
g9
(g13
S'\xdc\xa4\xe7je\x991@'
p739
tp740
Rp741
sg24
g9
(g13
S'\xb1\xc7X|\x0fY3@'
p742
tp743
Rp744
sg28
g9
(g13
S'\x9f(\xacr\x8a\xd32@'
p745
tp746
Rp747
sg32
I55
sa(dp748
g8
g9
(g13
S'\xfc\x94\xdc\x999\xac\xd4?'
p749
tp750
Rp751
sg19
I30
sg20
g9
(g13
S'\xf41*\x91\x0e]2@'
p752
tp753
Rp754
sg24
g9
(g13
S'\xd0\xc4\xe4NER3@'
p755
tp756
Rp757
sg28
g9
(g13
S'\xa0\xc67\xae>\xe22@'
p758
tp759
Rp760
sg32
I56
sa(dp761
g8
g9
(g13
S'\x12\x8bQ\xc3,\x8a\xd3?'
p762
tp763
Rp764
sg19
I30
sg20
g9
(g13
S'^\xe0\x86\xcd\xa5^2@'
p765
tp766
Rp767
sg24
g9
(g13
S'\x02<\xd9]\xd6\xa53@'
p768
tp769
Rp770
sg28
g9
(g13
S'\x03\xbeOU\x1e\xd72@'
p771
tp772
Rp773
sg32
I57
sa(dp774
g8
g9
(g13
S'%y\x04\x12\xd4\\\xe1?'
p775
tp776
Rp777
sg19
I30
sg20
g9
(g13
S':#\x99\xae\x87\x802@'
p778
tp779
Rp780
sg24
g9
(g13
S"2Y\\'\xb6r4@"
p781
tp782
Rp783
sg28
g9
(g13
S'\x9b\x89\xd6\x1e\xe0(3@'
p784
tp785
Rp786
sg32
I58
sa(dp787
g8
g9
(g13
S'\xfb\xa7\xd6\xbe\x06\xff\xe0?'
p788
tp789
Rp790
sg19
I30
sg20
g9
(g13
S'\x0cY\xe7\xc7\xe0u2@'
p791
tp792
Rp793
sg24
g9
(g13
S'\xbb\xf6J\xd7yN4@'
p794
tp795
Rp796
sg28
g9
(g13
S'\xa1W\x0c\x1d\xdbf3@'
p797
tp798
Rp799
sg32
I59
sa(dp800
g8
g9
(g13
S'\xa2,r\t\xb7(\xe5?'
p801
tp802
Rp803
sg19
I30
sg20
g9
(g13
S'*\x88\x96\xdbIp2@'
p804
tp805
Rp806
sg24
g9
(g13
S'\xd1_\xd14[\x006@'
p807
tp808
Rp809
sg28
g9
(g13
S'\xa1|\xdc\x9e/\xe33@'
p810
tp811
Rp812
sg32
I60
sa(dp813
g8
g9
(g13
S'e\x1c\x1c1\xfb\r\xe6?'
p814
tp815
Rp816
sg19
I30
sg20
g9
(g13
S'v\xaf2\xee?~3@'
p817
tp818
Rp819
sg24
g9
(g13
S',\xf4[yu\xf35@'
p820
tp821
Rp822
sg28
g9
(g13
S'\x0f6M\xfe\xdd54@'
p823
tp824
Rp825
sg32
I61
sa(dp826
g8
g9
(g13
S'\xd9\xca\xe0\x05\xc7\xaf\xeb?'
p827
tp828
Rp829
sg19
I30
sg20
g9
(g13
S'\xb8e\x86\x8e\x82}3@'
p830
tp831
Rp832
sg24
g9
(g13
S'kf\x90L\xf5.6@'
p833
tp834
Rp835
sg28
g9
(g13
S'?x{*\xe2\x804@'
p836
tp837
Rp838
sg32
I62
sa(dp839
g8
g9
(g13
S"d'\x90lXs\xe4?"
p840
tp841
Rp842
sg19
I30
sg20
g9
(g13
S'"_\x0f\xd1\x0b\x873@'
p843
tp844
Rp845
sg24
g9
(g13
S'G\xe6\xfdF\x89Y6@'
p846
tp847
Rp848
sg28
g9
(g13
S'\xb0]+\xea\x13C5@'
p849
tp850
Rp851
sg32
I63
sa(dp852
g8
g9
(g13
S'jE\r\xf7\xf9=\xe1?'
p853
tp854
Rp855
sg19
I30
sg20
g9
(g13
S'\x10z\x96\xfby\xde4@'
p856
tp857
Rp858
sg24
g9
(g13
S'\x18)\xaaKA\xca6@'
p859
tp860
Rp861
sg28
g9
(g13
S'6Y\xa3#\x1e\xb45@'
p862
tp863
Rp864
sg32
I64
sa(dp865
g8
g9
(g13
S'\xad\xb0^\x92\x84\xb4\xe1?'
p866
tp867
Rp868
sg19
I30
sg20
g9
(g13
S'\x9aV\xd9\xe5\xae,5@'
p869
tp870
Rp871
sg24
g9
(g13
S'\x0b&y\xb7z\x107@'
p872
tp873
Rp874
sg28
g9
(g13
S'JG0.<86@'
p875
tp876
Rp877
sg32
I65
sa(dp878
g8
g9
(g13
S'\xbf\x13\xff\xd8A\xb0\xd8?'
p879
tp880
Rp881
sg19
I30
sg20
g9
(g13
S'\x19\x0b5Uy\x955@'
p882
tp883
Rp884
sg24
g9
(g13
S'\xdd\x1a\xb4`\xd8/7@'
p885
tp886
Rp887
sg28
g9
(g13
S'\xde\x03\x00\n\xebx6@'
p888
tp889
Rp890
sg32
I66
sa(dp891
g8
g9
(g13
S'\xde\x195\xef\xbb7\xd7?'
p892
tp893
Rp894
sg19
I30
sg20
g9
(g13
S'\x08}\xa1\xbf\xc0\t6@'
p895
tp896
Rp897
sg24
g9
(g13
S'\xa5A\xe0*~\xe57@'
p898
tp899
Rp900
sg28
g9
(g13
S'A9\x93\xb3\x95\x946@'
p901
tp902
Rp903
sg32
I67
sa(dp904
g8
g9
(g13
S'<-/\xcbf;\xe4?'
p905
tp906
Rp907
sg19
I30
sg20
g9
(g13
S'\xfe\x80\xa1\xfc\xe1\xeb5@'
p908
tp909
Rp910
sg24
g9
(g13
S'\x12*\x05_\xb5P8@'
p911
tp912
Rp913
sg28
g9
(g13
S'\x94"\x8a"4\xc96@'
p914
tp915
Rp916
sg32
I68
sa(dp917
g8
g9
(g13
S'D\xf4\xe8\x9a\xdb\x90\xe7?'
p918
tp919
Rp920
sg19
I30
sg20
g9
(g13
S'\x9b\x9c\xef\xa3"\x126@'
p921
tp922
Rp923
sg24
g9
(g13
S'\\#\xd3\xf0\r{8@'
p924
tp925
Rp926
sg28
g9
(g13
S'z\x16aTR*7@'
p927
tp928
Rp929
sg32
I69
sa(dp930
g8
g9
(g13
S'\xcc\xf7\xe2p\xfc\x86\xe3?'
p931
tp932
Rp933
sg19
I30
sg20
g9
(g13
S'\xdb\xc7\x89Uq\n6@'
p934
tp935
Rp936
sg24
g9
(g13
S'F\xe5\xe00\xbf\x828@'
p937
tp938
Rp939
sg28
g9
(g13
S"7mM,'\xab7@"
p940
tp941
Rp942
sg32
I70
sa(dp943
g8
g9
(g13
S'\x84\x91\xaf\xac\xea#\xe1?'
p944
tp945
Rp946
sg19
I30
sg20
g9
(g13
S'\x90s\xf7P\\\xc75@'
p947
tp948
Rp949
sg24
g9
(g13
S'\xd9\xcdA3)\x808@'
p950
tp951
Rp952
sg28
g9
(g13
S'L\x0f\x15"\xce\xea7@'
p953
tp954
Rp955
sg32
I71
sa(dp956
g8
g9
(g13
S'-l\x9b\x06\xd1H\xd1?'
p957
tp958
Rp959
sg19
I30
sg20
g9
(g13
S"\xcav@\xa6'u7@"
p960
tp961
Rp962
sg24
g9
(g13
S'\xbb\xf7\x9e\xb3\xa1|8@'
p963
tp964
Rp965
sg28
g9
(g13
S'\x1b\x82\xce#\xe1\xff7@'
p966
tp967
Rp968
sg32
I72
sa(dp969
g8
g9
(g13
S'WP\xdc\x13`\x0c\xd3?'
p970
tp971
Rp972
sg19
I30
sg20
g9
(g13
S'\x15K(`P\x947@'
p973
tp974
Rp975
sg24
g9
(g13
S'\x83\xfd\xaa\t\x92\x8b8@'
p976
tp977
Rp978
sg28
g9
(g13
S'\x8d\xe6\xf3h\xa2\r8@'
p979
tp980
Rp981
sg32
I73
sa(dp982
g8
g9
(g13
S'~Ul\xe12\xa6\xde?'
p983
tp984
Rp985
sg19
I30
sg20
g9
(g13
S'\xbd\xb1[\x18\xb9\x967@'
p986
tp987
Rp988
sg24
g9
(g13
S'\xba\x9c\xf8\xb6Dt9@'
p989
tp990
Rp991
sg28
g9
(g13
S'\x8f\x11i\x98w<8@'
p992
tp993
Rp994
sg32
I74
sa(dp995
g8
g9
(g13
S'e\xc0\xf8\xda\x04\xbf\xe0?'
p996
tp997
Rp998
sg19
I30
sg20
g9
(g13
S'w>\xcf\xfa1\x957@'
p999
tp1000
Rp1001
sg24
g9
(g13
S'\xcd\x87-8\xafe9@'
p1002
tp1003
Rp1004
sg28
g9
(g13
S'Sz\x0b$T88@'
p1005
tp1006
Rp1007
sg32
I75
sa(dp1008
g8
g9
(g13
S'\xce)\xc8\xa8\x19f\xe2?'
p1009
tp1010
Rp1011
sg19
I30
sg20
g9
(g13
S'M\x9f\xfa\x1c\\\x1d7@'
p1012
tp1013
Rp1014
sg24
g9
(g13
S'\xd5A{\xe3\xb5\xb49@'
p1015
tp1016
Rp1017
sg28
g9
(g13
S'\xd6}\xc1\xb6\xb6{8@'
p1018
tp1019
Rp1020
sg32
I76
sa(dp1021
g8
g9
(g13
S'\xa8\x8a\xb9S\xd2P\xe0?'
p1022
tp1023
Rp1024
sg19
I30
sg20
g9
(g13
S'f\xba\xf5v0\xcb7@'
p1025
tp1026
Rp1027
sg24
g9
(g13
S'\xba8+\x81q\xdc9@'
p1028
tp1029
Rp1030
sg28
g9
(g13
S'\xbd\x89t\xa7\xeb\xcc8@'
p1031
tp1032
Rp1033
sg32
I77
sa(dp1034
g8
g9
(g13
S"\xf7\x91\x90'W \xde?"
p1035
tp1036
Rp1037
sg19
I30
sg20
g9
(g13
S'\xea\xab\xc1\xcb\xbf\x078@'
p1038
tp1039
Rp1040
sg24
g9
(g13
S'\x03\xad\x14\x08\xf6U:@'
p1041
tp1042
Rp1043
sg28
g9
(g13
S'\xdd\xd7\xf8\x16r=9@'
p1044
tp1045
Rp1046
sg32
I78
sa(dp1047
g8
g9
(g13
S'\xf8\xcep\xa9I\xfd\xdf?'
p1048
tp1049
Rp1050
sg19
I30
sg20
g9
(g13
S'\xa20$\xe2\x9f\xa08@'
p1051
tp1052
Rp1053
sg24
g9
(g13
S'\xbc\x11\xa6\x18\x15\x86:@'
p1054
tp1055
Rp1056
sg28
g9
(g13
S'\x99\xde"n\'>9@'
p1057
tp1058
Rp1059
sg32
I79
sa(dp1060
g8
g9
(g13
S'\xf4\x13\xba\xb3\xdbG\xe5?'
p1061
tp1062
Rp1063
sg19
I30
sg20
g9
(g13
S'\xab\x9d\x01d\xb0\x928@'
p1064
tp1065
Rp1066
sg24
g9
(g13
S'\xa3jm_\xa9\xb5:@'
p1067
tp1068
Rp1069
sg28
g9
(g13
S"\xd9'5\xb3~\xa29@"
p1070
tp1071
Rp1072
sg32
I80
sa(dp1073
g8
g9
(g13
S']\xc6\x02/_U\xde?'
p1074
tp1075
Rp1076
sg19
I30
sg20
g9
(g13
S'\xa3\xc8\xff\xe6\xb3\xb78@'
p1077
tp1078
Rp1079
sg24
g9
(g13
S'K\xb5n\xdb\x13\xbc:@'
p1080
tp1081
Rp1082
sg28
g9
(g13
S'\x87\x97\xa0\xb5\xb75:@'
p1083
tp1084
Rp1085
sg32
I81
sa(dp1086
g8
g9
(g13
S'\xd0a\xa0w\xad\xff\xd5?'
p1087
tp1088
Rp1089
sg19
I30
sg20
g9
(g13
S'\xae\xd5\xd3L\xdf\xe68@'
p1090
tp1091
Rp1092
sg24
g9
(g13
S'\x1aD\xfb\xe7U\xa3:@'
p1093
tp1094
Rp1095
sg28
g9
(g13
S'\xa4G\x1f_w%:@'
p1096
tp1097
Rp1098
sg32
I82
sa(dp1099
g8
g9
(g13
S'\xa8\r\x1ac\xf4.\xd5?'
p1100
tp1101
Rp1102
sg19
I30
sg20
g9
(g13
S'\x94\xb9wm\xc2z9@'
p1103
tp1104
Rp1105
sg24
g9
(g13
S'\xd1\xc8\x9c\xc4@\xb5:@'
p1106
tp1107
Rp1108
sg28
g9
(g13
S'2\xcb\xa4\xf2P2:@'
p1109
tp1110
Rp1111
sg32
I83
sa(dp1112
g8
g9
(g13
S'\xed\xa8\xa5\x84u\xb8\xd4?'
p1113
tp1114
Rp1115
sg19
I30
sg20
g9
(g13
S'\x0b1\xca\\\x1ew9@'
p1116
tp1117
Rp1118
sg24
g9
(g13
S'\xf2\x89\x8aGr\xad:@'
p1119
tp1120
Rp1121
sg28
g9
(g13
S'\x1a+}\xc4\x0e*:@'
p1122
tp1123
Rp1124
sg32
I84
sa(dp1125
g8
g9
(g13
S' \x95V*\xcb2\xd9?'
p1126
tp1127
Rp1128
sg19
I30
sg20
g9
(g13
S'\x1c\x01\x02\xf9\xfc\xa69@'
p1129
tp1130
Rp1131
sg24
g9
(g13
S'\x85\xe6d\x10M\xd6;@'
p1132
tp1133
Rp1134
sg28
g9
(g13
S"\xcf'\xb6l\x1b\\:@"
p1135
tp1136
Rp1137
sg32
I85
sa(dp1138
g8
g9
(g13
S'c%\xad\x88\x06^\xd9?'
p1139
tp1140
Rp1141
sg19
I30
sg20
g9
(g13
S'\x965\xb1\xa2K\xed8@'
p1142
tp1143
Rp1144
sg24
g9
(g13
S'\xc0\xa8\xa5\xf3g\xca:@'
p1145
tp1146
Rp1147
sg28
g9
(g13
S'C\xa5\xd8B;1:@'
p1148
tp1149
Rp1150
sg32
I86
sa(dp1151
g8
g9
(g13
S'Q<_\xf3\xaf\xb7\xd1?'
p1152
tp1153
Rp1154
sg19
I30
sg20
g9
(g13
S'\x81\xff\xdc+\x0e\xd29@'
p1155
tp1156
Rp1157
sg24
g9
(g13
S'J\xca\xcc;\xa2\x08;@'
p1158
tp1159
Rp1160
sg28
g9
(g13
S'\xd9\xdbW\xd5\xd7H:@'
p1161
tp1162
Rp1163
sg32
I87
sa(dp1164
g8
g9
(g13
S'Z\x90;\x89\xcc\xc9\xdb?'
p1165
tp1166
Rp1167
sg19
I30
sg20
g9
(g13
S'\xa8a;\x04\xd4\xc09@'
p1168
tp1169
Rp1170
sg24
g9
(g13
S'\xb7\xb7*\xcc\r <@'
p1171
tp1172
Rp1173
sg28
g9
(g13
S'\x1d\xd2;z6d:@'
p1174
tp1175
Rp1176
sg32
I88
sa(dp1177
g8
g9
(g13
S'\x02\xc9\x93f\xa2\x11\xdd?'
p1178
tp1179
Rp1180
sg19
I30
sg20
g9
(g13
S'\x8bZ\xde\xc8?\xc29@'
p1181
tp1182
Rp1183
sg24
g9
(g13
S'\xa1?+.\x8d\xe0;@'
p1184
tp1185
Rp1186
sg28
g9
(g13
S'\x07\xcb\x9af\x7fW:@'
p1187
tp1188
Rp1189
sg32
I89
sa(dp1190
g8
g9
(g13
S'nf\x96WX\xf8\xe7?'
p1191
tp1192
Rp1193
sg19
I30
sg20
g9
(g13
S'Y\xddU\t\xb3\xc79@'
p1194
tp1195
Rp1196
sg24
g9
(g13
S'\x10M\xa9M\xe9+<@'
p1197
tp1198
Rp1199
sg28
g9
(g13
S'\x05\xa0\xd8\x8e\xc9\xad:@'
p1200
tp1201
Rp1202
sg32
I90
sa(dp1203
g8
g9
(g13
S'A\xf0S\xffq\x8e\xed?'
p1204
tp1205
Rp1206
sg19
I30
sg20
g9
(g13
S'+\x06g\xaa\x95W8@'
p1207
tp1208
Rp1209
sg24
g9
(g13
S'\xf9\xee\xbb\x13\xae}<@'
p1210
tp1211
Rp1212
sg28
g9
(g13
S'M\xcb\xd1A\xe7;;@'
p1213
tp1214
Rp1215
sg32
I91
sa(dp1216
g8
g9
(g13
S'\xdeg\x9d\xff\xd9;\xdb?'
p1217
tp1218
Rp1219
sg19
I30
sg20
g9
(g13
S'\xaf1\xaa\x1e\xe4\xb2;@'
p1220
tp1221
Rp1222
sg24
g9
(g13
S'\xc1\xb2\x0e\xd4\xa2$>@'
p1223
tp1224
Rp1225
sg28
g9
(g13
S'\xa2\xafl\xc7w/<@'
p1226
tp1227
Rp1228
sg32
I92
sa(dp1229
g8
g9
(g13
S'\x82\x98\xfe\x017]\xe7?'
p1230
tp1231
Rp1232
sg19
I30
sg20
g9
(g13
S'}z2kj\xa8;@'
p1233
tp1234
Rp1235
sg24
g9
(g13
S'\x8e\x9fH$\xa7p>@'
p1236
tp1237
Rp1238
sg28
g9
(g13
S'F\xe1LQXU<@'
p1239
tp1240
Rp1241
sg32
I93
sa(dp1242
g8
g9
(g13
S'\x94T\xa5\x89\x964\xf0?'
p1243
tp1244
Rp1245
sg19
I30
sg20
g9
(g13
S'\xe5(sh>\xb0;@'
p1246
tp1247
Rp1248
sg24
g9
(g13
S'\x0ez\x120\xf3\xac>@'
p1249
tp1250
Rp1251
sg28
g9
(g13
S"\x14f\x84\xc74'=@"
p1252
tp1253
Rp1254
sg32
I94
sa(dp1255
g8
g9
(g13
S'\xa5\x85\x80y\xa8\xef\xe7?'
p1256
tp1257
Rp1258
sg19
I30
sg20
g9
(g13
S'\x89\xb1\xe2\x17X\xec;@'
p1259
tp1260
Rp1261
sg24
g9
(g13
S'\xca8c\x8c\xd8\x96>@'
p1262
tp1263
Rp1264
sg28
g9
(g13
S'\xb5x\xf9\x0b\xe7\xd7=@'
p1265
tp1266
Rp1267
sg32
I95
sa(dp1268
g8
g9
(g13
S'\x12{\xb7\xbb\xf9\xe8\xd3?'
p1269
tp1270
Rp1271
sg19
I30
sg20
g9
(g13
S'\xd0{\xbb\x91U\xb2=@'
p1272
tp1273
Rp1274
sg24
g9
(g13
S'\x9e9\xe3:\xc7\xaa>@'
p1275
tp1276
Rp1277
sg28
g9
(g13
S'\r\xb0\xaf\x1b\xdeB>@'
p1278
tp1279
Rp1280
sg32
I96
sa(dp1281
g8
g9
(g13
S'G\xfd\xe1\x1d\xed\xf3\xd3?'
p1282
tp1283
Rp1284
sg19
I30
sg20
g9
(g13
S'\xbe.\xd5st\xb3=@'
p1285
tp1286
Rp1287
sg24
g9
(g13
S'\x9d\x93\xaf\xb6\xb4\xfd>@'
p1288
tp1289
Rp1290
sg28
g9
(g13
S'\xc4N}\xf9\x05H>@'
p1291
tp1292
Rp1293
sg32
I97
sa(dp1294
g8
g9
(g13
S'\xa2\x92\xef\r\xe7\xc2\xe0?'
p1295
tp1296
Rp1297
sg19
I30
sg20
g9
(g13
S'\x05\xab4\xff\x85\xb2=@'
p1298
tp1299
Rp1300
sg24
g9
(g13
S'[\xf4\x127i\x84?@'
p1301
tp1302
Rp1303
sg28
g9
(g13
S'l\xa4\x8f\x8a\xa7d>@'
p1304
tp1305
Rp1306
sg32
I98
sa(dp1307
g8
g9
(g13
S'C\xe9\x08\xf1},\xe4?'
p1308
tp1309
Rp1310
sg19
I30
sg20
g9
(g13
S'\x90M\x08\xb0Q\xc9=@'
p1311
tp1312
Rp1313
sg24
g9
(g13
S'f\xa0\x8dh\x95:@@'
p1314
tp1315
Rp1316
sg28
g9
(g13
S'\x12a\x15/\xeb\x8a>@'
p1317
tp1318
Rp1319
sg32
I99
satp1320
Rp1321
(dp1322
S'log_header'
p1323
I01
sS'header'
p1324
NsS'columns_len'
p1325
NsS'buffindex'
p1326
I0
sS'chapters'
p1327
ccollections
defaultdict
p1328
(g4
tp1329
Rp1330
sbsS'rndstate'
p1331
(I3
(L2802581823L
L1444473507L
L769961875L
L1271798494L
L2965535668L
L4029107919L
L913568926L
L1687546942L
L1403741713L
L1779564431L
L2022532794L
L1064115940L
L2321565118L
L3261114980L
L2443782504L
L3793792172L
L2558554689L
L3306220136L
L3222068663L
L780045499L
L4161088680L
L3655106971L
L1301158425L
L2042391592L
L3135013716L
L1775326883L
L379905208L
L3752384529L
L4085042453L
L1050499187L
L686981497L
L2742354198L
L1699420220L
L3060090493L
L2680595267L
L3821369267L
L450302606L
L504458288L
L3909647427L
L3845529274L
L554538343L
L608078606L
L1739783025L
L3613461708L
L2697220333L
L2367985114L
L1044133112L
L4197488410L
L258391882L
L2006301953L
L1431863673L
L2256760965L
L1771873052L
L870178507L
L4242771783L
L2569141629L
L1876470492L
L1820486188L
L1724000497L
L1571483889L
L2563788725L
L1778206562L
L884326816L
L2270022858L
L2274610429L
L288066227L
L348061735L
L886389337L
L1096548893L
L425010030L
L3716688196L
L2250058700L
L42611291L
L705121418L
L587809198L
L1887777827L
L50720535L
L1444820640L
L3632267900L
L680492952L
L1064827773L
L2047719884L
L2820367701L
L424995337L
L784394435L
L726570055L
L2527498354L
L3526482066L
L469043194L
L677874897L
L4067658590L
L2086121806L
L171964445L
L1484530604L
L3950837773L
L1787619357L
L695569166L
L3214970973L
L353327191L
L2774731027L
L779320312L
L1039143299L
L2494466424L
L2056897319L
L1045333804L
L835394719L
L3179503994L
L3104918329L
L1596872157L
L2193963111L
L2498497849L
L819115138L
L1902474822L
L1528152070L
L746911914L
L2827272094L
L440348703L
L446330320L
L3492859615L
L4114721259L
L274442243L
L348670475L
L3729121980L
L3880273671L
L4032433024L
L2403267902L
L3109925228L
L4292854120L
L1660810161L
L2557202580L
L955471870L
L1114408818L
L1588800717L
L2131256018L
L1322342226L
L1496822816L
L2526159052L
L1535185191L
L3201399423L
L1597556593L
L1271729399L
L2169507553L
L618844629L
L1853012635L
L3213123996L
L2115320379L
L3644623808L
L3520498723L
L368825773L
L2602000195L
L4178272890L
L3555606294L
L2329601548L
L1677366122L
L2715370982L
L3543514312L
L968498650L
L917410000L
L1675254347L
L186722963L
L661071259L
L1831020526L
L4217845276L
L739902546L
L2195722894L
L732574307L
L1540407777L
L2071631770L
L3815748263L
L1425575079L
L3458747707L
L1226528200L
L3906617916L
L1346368171L
L1390228825L
L344771250L
L1379873849L
L3807853154L
L3724524074L
L3225126892L
L1859836132L
L523495812L
L4085557886L
L356345101L
L1298374266L
L1150491874L
L2070054154L
L3185286666L
L3269599580L
L3528679737L
L2323412256L
L2381378469L
L2630281973L
L201248434L
L1398315493L
L1618934918L
L3573030694L
L789797380L
L2791258495L
L3301619545L
L2376770267L
L1581515463L
L3845275082L
L2878749453L
L1983909269L
L2085810753L
L1400932128L
L3577209826L
L3873648L
L647314866L
L2601575660L
L2837508231L
L195736206L
L1521096584L
L3857664160L
L2091220683L
L1608891636L
L3478235279L
L3707944529L
L3410700234L
L2048755039L
L812428672L
L2788450680L
L2765939657L
L3160603191L
L1436370575L
L1981365084L
L206485587L
L744484504L
L2525672532L
L1963742538L
L326673204L
L1703709328L
L330022371L
L188390114L
L1495736027L
L1207864221L
L750510077L
L413167469L
L975225916L
L4148670878L
L4261427946L
L474479802L
L2987465643L
L2620402402L
L2052613618L
L3698134371L
L2650550994L
L1892586739L
L3327531696L
L2909709100L
L2277501197L
L1306868052L
L2780646792L
L937341283L
L1765886274L
L1466616540L
L3247360713L
L1490518124L
L2229297475L
L3432113910L
L156672059L
L796748482L
L147672012L
L1422381126L
L4163527819L
L4066596297L
L3185974845L
L915095198L
L3071722356L
L4005609021L
L855935791L
L871073671L
L560558106L
L471418547L
L3252175110L
L793874670L
L523657463L
L3484667982L
L3648373485L
L3486166173L
L1300338104L
L4059592204L
L2143397785L
L4012323348L
L3389092127L
L2327183222L
L2358329400L
L514739094L
L2907105652L
L1745841733L
L1077252944L
L2237391787L
L32300556L
L229656315L
L1438239763L
L3720507038L
L3868745858L
L488361703L
L1195142467L
L2556934430L
L1434870321L
L3090105068L
L2185982802L
L633321898L
L2365088413L
L3782600753L
L573710427L
L3739223261L
L766803612L
L1125811087L
L11244195L
L1422873282L
L3365850514L
L2735089909L
L1979098859L
L96775683L
L4046828417L
L164159533L
L2910439779L
L575019219L
L3749843515L
L1640877828L
L1700891134L
L473128L
L4005669323L
L894318521L
L652056131L
L1056858231L
L2916654461L
L4194881709L
L1419039512L
L1822331723L
L560742509L
L3458176933L
L1338858025L
L3419861015L
L2861035135L
L830089990L
L3893747319L
L4138048619L
L351298377L
L1863444001L
L1352726424L
L1072526438L
L1873791833L
L2705777647L
L4136060587L
L1382794704L
L3429858081L
L2585294333L
L2310639473L
L1506371917L
L4182970636L
L1623608307L
L410478508L
L3154127693L
L3546578737L
L1315673279L
L645068198L
L1678343479L
L372464285L
L2492061842L
L1663045182L
L3266505576L
L2845797980L
L2306513776L
L3298474447L
L3516372998L
L169279726L
L743211150L
L1387030945L
L1063238534L
L2440068058L
L2314412278L
L442962781L
L1865329383L
L1905334990L
L727107619L
L1295922243L
L2724599555L
L3947762889L
L2661681274L
L2398343571L
L856966956L
L1239967003L
L3972399423L
L2502624812L
L1016363355L
L3302282293L
L3222290916L
L2152224412L
L903984217L
L333896676L
L1685819441L
L131362384L
L1206691122L
L1647873035L
L1729373152L
L2424030131L
L2828088979L
L3965066209L
L3965963752L
L3457022108L
L325549805L
L3299761558L
L2569266697L
L442084808L
L3546764225L
L642539996L
L1108974817L
L3732681623L
L3070826548L
L361467079L
L3623830341L
L3400546164L
L838855899L
L3537617189L
L3458732165L
L1920377844L
L3104003091L
L641236112L
L379736777L
L3644413481L
L739353641L
L778087547L
L441516508L
L1271451008L
L3088966788L
L1516030822L
L977648733L
L3496532976L
L171028492L
L4035208403L
L1664292567L
L268761842L
L1268805881L
L3928011764L
L2927644612L
L2344722073L
L795062540L
L1621290644L
L799597186L
L1816247258L
L3541448062L
L1455224721L
L3171538490L
L787958399L
L3168280204L
L2274686943L
L2854192711L
L4009576191L
L3652940398L
L3612849542L
L2718904345L
L1659569289L
L1489179517L
L1353814555L
L1948685213L
L3949195326L
L2894276182L
L243230372L
L1897667992L
L798839285L
L1592356402L
L1045637602L
L2381427142L
L2954631655L
L1049447797L
L2804672608L
L3839710304L
L104701302L
L1277134803L
L2354699009L
L3865901521L
L2413039053L
L4232163195L
L550038954L
L4270967192L
L240578835L
L2854493241L
L3912362569L
L2341964738L
L792390910L
L2922094849L
L3313615255L
L2784069873L
L3422379316L
L3934229471L
L3859642168L
L1038116291L
L1238071448L
L3153328958L
L183947431L
L644797510L
L697104007L
L2526607219L
L3328755206L
L1456683831L
L561597821L
L2459927181L
L1546146771L
L1697561867L
L4235302483L
L3634508539L
L3634829060L
L230958608L
L1995116397L
L1976868151L
L4089363835L
L57537414L
L3441789100L
L13712608L
L1533602953L
L2989386753L
L2803131878L
L3857865973L
L129715058L
L4265723262L
L2380206974L
L304455774L
L1653096320L
L3007147212L
L1585112062L
L567748517L
L1248063294L
L1655659051L
L3507021749L
L2638097026L
L38901824L
L3401352742L
L3409642777L
L1787019461L
L2438134660L
L701291277L
L3999376383L
L3835064854L
L116945524L
L3125039257L
L24021239L
L2682316167L
L668406489L
L2248418672L
L1137969341L
L2934002909L
L2872806426L
L3557250858L
L595325081L
L2837518585L
L931761575L
L1730914097L
L3502696686L
L223992393L
L1740228997L
L4242677596L
L169112185L
L2488021357L
L3576067739L
L2046983386L
L3010097225L
L3238805294L
L2445532365L
L2565867902L
L2157531733L
L4253912230L
L3696906398L
L1866083922L
L2201316980L
L1428432159L
L2150599474L
L2142885707L
L3308614354L
L1693989554L
L3742450806L
L3900797241L
L663766336L
L1401712864L
L152479091L
L3433389839L
L839895954L
L18457560L
L887862190L
L1995033190L
L1227471981L
L2867265990L
L3460394769L
L2534326540L
L3964934235L
L3535692854L
L1856496610L
L3643024739L
L721606105L
L2068095208L
L1593803729L
L458771727L
L2483757838L
L271509283L
L977314139L
L3750510307L
L1454646588L
L3042394005L
L2857358170L
L1610577759L
L3690975621L
L805341666L
L3041679038L
L797643681L
L2600177637L
L1341147269L
L1839136632L
L1531534848L
L2796260229L
L3781222292L
L1079634319L
L2926158662L
L2153666030L
L804504249L
L532038126L
L2063432525L
L4011328690L
L3646930436L
L720744353L
L1135660035L
L3445757298L
L216L
tp1332
F1.1272274388476118
tp1333
sS'halloffame'
p1334
g3
(cdeap.tools.support
HallOfFame
p1335
c__builtin__
object
p1336
Ntp1337
Rp1338
(dp1339
S'keys'
p1340
(lp1341
g3
(cdeap.creator
FitnessMin
p1342
g1336
Ntp1343
Rp1344
(dp1345
S'wvalues'
p1346
(F32.45768458285674
tp1347
sbasS'items'
p1348
(lp1349
g3
(cdeap.creator
Individual
p1350
g5
(lp1351
F31.571966295879186
aF1.9963024760269914
aF0.1227134050449572
aF4.386002984721835
aF0.37643467497104544
atp1352
Rp1353
(dp1354
S'fitness'
p1355
g1344
sbasS'maxsize'
p1356
I1
sS'similar'
p1357
coperator
eq
p1358
sbsS'population'
p1359
(lp1360
g3
(g1350
g5
(lp1361
F31.539316911247976
aF1.9963024760269914
aF2.2723139756889372
aF5.21032268156022
aF1.8888249253410434
atp1362
Rp1363
(dp1364
g1355
g3
(g1342
g1336
Ntp1365
Rp1366
(dp1367
g1346
(F31.612800689113637
tp1368
sbsbag3
(g1350
g5
(lp1369
F30.527063210548146
aF2.328036578690969
aF0.1227134050449572
aF4.386002984721835
aF0.37643467497104544
atp1370
Rp1371
(dp1372
g1355
g3
(g1342
g1336
Ntp1373
Rp1374
(dp1375
g1346
(F31.07090601725328
tp1376
sbsbag3
(g1350
g5
(lp1377
F29.68618852807188
aF1.9963024760269914
aF2.345268401270607
aF2.231392775090279
aF1.8888249253410434
atp1378
Rp1379
(dp1380
g1355
g3
(g1342
g1336
Ntp1381
Rp1382
(dp1383
g1346
(F30.539325360648945
tp1384
sbsbag3
(g1350
g5
(lp1385
F30.244217150310334
aF1.9963024760269914
aF2.2723139756889372
aF5.21032268156022
aF1.8888249253410434
atp1386
Rp1387
(dp1388
g1355
g3
(g1342
g1336
Ntp1389
Rp1390
(dp1391
g1346
(F30.244780088832965
tp1392
sbsbag1371
ag3
(g1350
g5
(lp1393
F30.527063210548146
aF2.328036578690969
aF1.545995956679151
aF3.731946490676533
aF2.583148291237193
atp1394
Rp1395
(dp1396
g1355
g3
(g1342
g1336
Ntp1397
Rp1398
(dp1399
g1346
(F31.481160405073314
tp1400
sbsbag3
(g1350
g5
(lp1401
F30.527063210548146
aF2.328036578690969
aF1.2997338467744317
aF3.731946490676533
aF2.583148291237193
atp1402
Rp1403
(dp1404
g1355
g3
(g1342
g1336
Ntp1405
Rp1406
(dp1407
g1346
(F30.888346516886344
tp1408
sbsbag1371
ag1371
ag1379
ag3
(g1350
g5
(lp1409
F30.527063210548146
aF2.328036578690969
aF0.1227134050449572
aF4.386002984721835
aF0.37643467497104544
atp1410
Rp1411
(dp1412
g1355
g3
(g1342
g1336
Ntp1413
Rp1414
(dp1415
g1346
(F30.553127343883737
tp1416
sbsbag3
(g1350
g5
(lp1417
F30.59034912206974
aF2.328036578690969
aF1.2997338467744317
aF4.386002984721835
aF2.583148291237193
atp1418
Rp1419
(dp1420
g1355
g3
(g1342
g1336
Ntp1421
Rp1422
(dp1423
g1346
(F31.267089854837614
tp1424
sbsbag1395
ag1371
ag1411
ag3
(g1350
g5
(lp1425
F29.68618852807188
aF1.9963024760269914
aF2.2723139756889372
aF2.649358949822681
aF1.8888249253410434
atp1426
Rp1427
(dp1428
g1355
g3
(g1342
g1336
Ntp1429
Rp1430
(dp1431
g1346
(F30.62503264702489
tp1432
sbsbag1403
ag3
(g1350
g5
(lp1433
F31.571966295879186
aF1.9963024760269914
aF0.1227134050449572
aF4.386002984721835
aF0.37643467497104544
atp1434
Rp1435
(dp1436
g1355
g3
(g1342
g1336
Ntp1437
Rp1438
(dp1439
g1346
g1347
sbsbag3
(g1350
g5
(lp1440
F30.527063210548146
aF2.328036578690969
aF2.2723139756889372
aF1.149454781592281
aF1.8888249253410434
atp1441
Rp1442
(dp1443
g1355
g3
(g1342
g1336
Ntp1444
Rp1445
(dp1446
g1346
(F31.13441259824143
tp1447
sbsbag1363
ag1395
ag1435
ag3
(g1350
g5
(lp1448
F30.527063210548146
aF2.328036578690969
aF1.2997338467744317
aF4.386002984721835
aF2.583148291237193
atp1449
Rp1450
(dp1451
g1355
g3
(g1342
g1336
Ntp1452
Rp1453
(dp1454
g1346
(F30.947843541616162
tp1455
sbsbag1427
ag3
(g1350
g5
(lp1456
F30.527063210548146
aF2.328036578690969
aF0.1227134050449572
aF4.386002984721835
aF0.37643467497104544
atp1457
Rp1458
(dp1459
g1355
g3
(g1342
g1336
Ntp1460
Rp1461
(dp1462
g1346
(F30.963676225596966
tp1463
sbsbag1458
ag1458
ag1419
ag1435
ag3
(g1350
g5
(lp1464
F29.68618852807188
aF2.328036578690969
aF2.2723139756889372
aF1.149454781592281
aF1.8888249253410434
atp1465
Rp1466
(dp1467
g1355
g3
(g1342
g1336
Ntp1468
Rp1469
(dp1470
g1346
(F30.550045640929778
tp1471
sbsbas.