(dp0
S'generation'
p1
I99
sS'logbook'
p2
ccopy_reg
_reconstructor
p3
(cdeap.tools.support
Logbook
p4
c__builtin__
list
p5
(lp6
(dp7
S'evals'
p8
I30
sS'gen'
p9
I0
sa(dp10
g8
I30
sg9
I1
sa(dp11
g8
I30
sg9
I2
sa(dp12
g8
I30
sg9
I3
sa(dp13
g8
I30
sg9
I4
sa(dp14
g8
I30
sg9
I5
sa(dp15
g8
I30
sg9
I6
sa(dp16
g8
I30
sg9
I7
sa(dp17
g8
I30
sg9
I8
sa(dp18
g8
I30
sg9
I9
sa(dp19
g8
I30
sg9
I10
sa(dp20
g8
I30
sg9
I11
sa(dp21
g8
I30
sg9
I12
sa(dp22
g8
I30
sg9
I13
sa(dp23
g8
I30
sg9
I14
sa(dp24
g8
I30
sg9
I15
sa(dp25
g8
I30
sg9
I16
sa(dp26
g8
I30
sg9
I17
sa(dp27
g8
I30
sg9
I18
sa(dp28
g8
I30
sg9
I19
sa(dp29
g8
I30
sg9
I20
sa(dp30
g8
I30
sg9
I21
sa(dp31
g8
I30
sg9
I22
sa(dp32
g8
I30
sg9
I23
sa(dp33
g8
I30
sg9
I24
sa(dp34
g8
I30
sg9
I25
sa(dp35
g8
I30
sg9
I26
sa(dp36
g8
I30
sg9
I27
sa(dp37
g8
I30
sg9
I28
sa(dp38
g8
I30
sg9
I29
sa(dp39
g8
I30
sg9
I30
sa(dp40
g8
I30
sg9
I31
sa(dp41
g8
I30
sg9
I32
sa(dp42
g8
I30
sg9
I33
sa(dp43
g8
I30
sg9
I34
sa(dp44
g8
I30
sg9
I35
sa(dp45
g8
I30
sg9
I36
sa(dp46
g8
I30
sg9
I37
sa(dp47
g8
I30
sg9
I38
sa(dp48
g8
I30
sg9
I39
sa(dp49
g8
I30
sg9
I40
sa(dp50
g8
I30
sg9
I41
sa(dp51
g8
I30
sg9
I42
sa(dp52
g8
I30
sg9
I43
sa(dp53
g8
I30
sg9
I44
sa(dp54
g8
I30
sg9
I45
sa(dp55
g8
I30
sg9
I46
sa(dp56
g8
I30
sg9
I47
sa(dp57
g8
I30
sg9
I48
sa(dp58
g8
I30
sg9
I49
sa(dp59
g8
I30
sg9
I50
sa(dp60
g8
I30
sg9
I51
sa(dp61
g8
I30
sg9
I52
sa(dp62
g8
I30
sg9
I53
sa(dp63
g8
I30
sg9
I54
sa(dp64
g8
I30
sg9
I55
sa(dp65
g8
I30
sg9
I56
sa(dp66
g8
I30
sg9
I57
sa(dp67
g8
I30
sg9
I58
sa(dp68
g8
I30
sg9
I59
sa(dp69
g8
I30
sg9
I60
sa(dp70
g8
I30
sg9
I61
sa(dp71
g8
I30
sg9
I62
sa(dp72
g8
I30
sg9
I63
sa(dp73
g8
I30
sg9
I64
sa(dp74
g8
I30
sg9
I65
sa(dp75
g8
I30
sg9
I66
sa(dp76
g8
I30
sg9
I67
sa(dp77
g8
I30
sg9
I68
sa(dp78
g8
I30
sg9
I69
sa(dp79
g8
I30
sg9
I70
sa(dp80
g8
I30
sg9
I71
sa(dp81
g8
I30
sg9
I72
sa(dp82
g8
I30
sg9
I73
sa(dp83
g8
I30
sg9
I74
sa(dp84
g8
I30
sg9
I75
sa(dp85
g8
I30
sg9
I76
sa(dp86
g8
I30
sg9
I77
sa(dp87
g8
I30
sg9
I78
sa(dp88
g8
I30
sg9
I79
sa(dp89
g8
I30
sg9
I80
sa(dp90
g8
I30
sg9
I81
sa(dp91
g8
I30
sg9
I82
sa(dp92
g8
I30
sg9
I83
sa(dp93
g8
I30
sg9
I84
sa(dp94
g8
I30
sg9
I85
sa(dp95
g8
I30
sg9
I86
sa(dp96
g8
I30
sg9
I87
sa(dp97
g8
I30
sg9
I88
sa(dp98
g8
I30
sg9
I89
sa(dp99
g8
I30
sg9
I90
sa(dp100
g8
I30
sg9
I91
sa(dp101
g8
I30
sg9
I92
sa(dp102
g8
I30
sg9
I93
sa(dp103
g8
I30
sg9
I94
sa(dp104
g8
I30
sg9
I95
sa(dp105
g8
I30
sg9
I96
sa(dp106
g8
I30
sg9
I97
sa(dp107
g8
I30
sg9
I98
sa(dp108
g8
I30
sg9
I99
satp109
Rp110
(dp111
S'log_header'
p112
I01
sS'header'
p113
NsS'columns_len'
p114
(lp115
I5
aI3
aI44
aI41
asS'buffindex'
p116
I100
sS'chapters'
p117
ccollections
defaultdict
p118
(g4
tp119
Rp120
S'individual0'
p121
g3
(g4
g5
(lp122
(dp123
S'std'
p124
cnumpy.core.multiarray
scalar
p125
(cnumpy
dtype
p126
(S'f8'
p127
I0
I1
tp128
Rp129
(I3
S'<'
p130
NNNI-1
I-1
I0
tp131
bS'\x1e\xbeL\x86\x87{\xd0?'
p132
tp133
Rp134
sS'max'
p135
g125
(g129
S'AE\xd1,\xef\xfe\x02@'
p136
tp137
Rp138
sS'avg'
p139
g125
(g129
S'\x12\xb2\xe0\x96\x1d\xe3\xf0?'
p140
tp141
Rp142
sS'size'
p143
I30
sS'min'
p144
g125
(g129
S'\xf1\x156\xb5P\x8a\xed?'
p145
tp146
Rp147
sa(dp148
g124
g125
(g129
S'\xf4\xd0R!\xb1 \xe2?'
p149
tp150
Rp151
sg135
g125
(g129
S'\xd6\x9f`\x93\xd6\x84\x04@'
p152
tp153
Rp154
sg139
g125
(g129
S'\xd0\xda\xda\x05\xf1\x8f\xf4?'
p155
tp156
Rp157
sg143
I30
sg144
g125
(g129
S'\xf1\x156\xb5P\x8a\xed?'
p158
tp159
Rp160
sa(dp161
g124
g125
(g129
S'\xc49\xb1\x16AS\xe7?'
p162
tp163
Rp164
sg135
g125
(g129
S'Bj\xa8\xb4\xf3\x15\x07@'
p165
tp166
Rp167
sg139
g125
(g129
S'\xc0GU\xf3\xcf\xfb\xfc?'
p168
tp169
Rp170
sg143
I30
sg144
g125
(g129
S'\x04\x0c\x18\xef\xbb\x1b\xee?'
p171
tp172
Rp173
sa(dp174
g124
g125
(g129
S'\x12\x10\x9f\x00]$\xd7?'
p175
tp176
Rp177
sg135
g125
(g129
S'Bj\xa8\xb4\xf3\x15\x07@'
p178
tp179
Rp180
sg139
g125
(g129
S"'\xd9\x1b\xd0V\x8f\x02@"
p181
tp182
Rp183
sg143
I30
sg144
g125
(g129
S'\xd8\xf0\x89tm\xc1\xef?'
p184
tp185
Rp186
sa(dp187
g124
g125
(g129
S'\nk\x8c\xc96u\xc0?'
p188
tp189
Rp190
sg135
g125
(g129
S'Bj\xa8\xb4\xf3\x15\x07@'
p191
tp192
Rp193
sg139
g125
(g129
S'\xd9\x94\xf3*F\x90\x03@'
p194
tp195
Rp196
sg143
I30
sg144
g125
(g129
S'\x12\x9c6%B?\x01@'
p197
tp198
Rp199
sa(dp200
g124
g125
(g129
S'\xf6\xc5\xcb\x8bR{\xc3?'
p201
tp202
Rp203
sg135
g125
(g129
S'Bj\xa8\xb4\xf3\x15\x07@'
p204
tp205
Rp206
sg139
g125
(g129
S'3\xc8\xe7\x8f\xae\x16\x04@'
p207
tp208
Rp209
sg143
I30
sg144
g125
(g129
S'AE\xd1,\xef\xfe\x02@'
p210
tp211
Rp212
sa(dp213
g124
g125
(g129
S'\x1f\xcc\xc6\xafE1\xc7?'
p214
tp215
Rp216
sg135
g125
(g129
S'Bj\xa8\xb4\xf3\x15\x07@'
p217
tp218
Rp219
sg139
g125
(g129
S',\xf1\x14\x82\xc2\xa9\x04@'
p220
tp221
Rp222
sg143
I30
sg144
g125
(g129
S'AE\xd1,\xef\xfe\x02@'
p223
tp224
Rp225
sa(dp226
g124
g125
(g129
S'[e\xd4k\xb2\xf9\xc5?'
p227
tp228
Rp229
sg135
g125
(g129
S'Bj\xa8\xb4\xf3\x15\x07@'
p230
tp231
Rp232
sg139
g125
(g129
S'\tSz\x0cj\xf3\x04@'
p233
tp234
Rp235
sg143
I30
sg144
g125
(g129
S'AE\xd1,\xef\xfe\x02@'
p236
tp237
Rp238
sa(dp239
g124
g125
(g129
S'\xfa\xf5\xb30r\x08\xd3?'
p240
tp241
Rp242
sg135
g125
(g129
S'Bj\xa8\xb4\xf3\x15\x07@'
p243
tp244
Rp245
sg139
g125
(g129
S'\x11\x84\t\x9d\x1e\x9a\x05@'
p246
tp247
Rp248
sg143
I30
sg144
g125
(g129
S'\x1cF\x01\x12\x8e\x86\xf8?'
p249
tp250
Rp251
sa(dp252
g124
g125
(g129
S'\x01\x0e\xc4V:o\xdb?'
p253
tp254
Rp255
sg135
g125
(g129
S'\xa9\xf5\x878k\x1e\x14@'
p256
tp257
Rp258
sg139
g125
(g129
S'9\x9a\x15\x1a m\x07@'
p259
tp260
Rp261
sg143
I30
sg144
g125
(g129
S'AE\xd1,\xef\xfe\x02@'
p262
tp263
Rp264
sa(dp265
g124
g125
(g129
S'\xe0\xea{\xdf\xc4)\xe5?'
p266
tp267
Rp268
sg135
g125
(g129
S'\xa9\xf5\x878k\x1e\x14@'
p269
tp270
Rp271
sg139
g125
(g129
S'\xfb\x8a\xf7|o\x1b\t@'
p272
tp273
Rp274
sg143
I30
sg144
g125
(g129
S']s\xec\xa4Jb\x04@'
p275
tp276
Rp277
sa(dp278
g124
g125
(g129
S'\\F]t\x8a\x13\xe8?'
p279
tp280
Rp281
sg135
g125
(g129
S'\xa9\xf5\x878k\x1e\x14@'
p282
tp283
Rp284
sg139
g125
(g129
S'yt[{\xe0X\n@'
p285
tp286
Rp287
sg143
I30
sg144
g125
(g129
S'Bj\xa8\xb4\xf3\x15\x07@'
p288
tp289
Rp290
sa(dp291
g124
g125
(g129
S',O\xa8*fS\xeb?'
p292
tp293
Rp294
sg135
g125
(g129
S'\xa9\xf5\x878k\x1e\x14@'
p295
tp296
Rp297
sg139
g125
(g129
S'\xdc\xcd\rZ\xb9\xfd\r@'
p298
tp299
Rp300
sg143
I30
sg144
g125
(g129
S'Bj\xa8\xb4\xf3\x15\x07@'
p301
tp302
Rp303
sa(dp304
g124
g125
(g129
S'~\xf6+p\xf4m\xea?'
p305
tp306
Rp307
sg135
g125
(g129
S'\xa9\xf5\x878k\x1e\x14@'
p308
tp309
Rp310
sg139
g125
(g129
S'Ik\x13\xb7\x07\x0b\x11@'
p311
tp312
Rp313
sg143
I30
sg144
g125
(g129
S'Bj\xa8\xb4\xf3\x15\x07@'
p314
tp315
Rp316
sa(dp317
g124
g125
(g129
S'up\xc3\xe8j)\xd8?'
p318
tp319
Rp320
sg135
g125
(g129
S'`\x0b\x0c\xa1\xef\x05\x17@'
p321
tp322
Rp323
sg139
g125
(g129
S'R~\xc6\xaf\x1b\xc3\x13@'
p324
tp325
Rp326
sg143
I30
sg144
g125
(g129
S'\xe0\xe4\xec\x07=\xfc\r@'
p327
tp328
Rp329
sa(dp330
g124
g125
(g129
S'm\x13\x8bS\xf1n\xda?'
p331
tp332
Rp333
sg135
g125
(g129
S'Jj\xd7\x98y\x19\x1a@'
p334
tp335
Rp336
sg139
g125
(g129
S'i\xd7bl\x96\x8c\x14@'
p337
tp338
Rp339
sg143
I30
sg144
g125
(g129
S"\x1aw\xdb\xac'\xf8\x0f@"
p340
tp341
Rp342
sa(dp343
g124
g125
(g129
S'3\xc4\x82E-\x80\xdf?'
p344
tp345
Rp346
sg135
g125
(g129
S'Jj\xd7\x98y\x19\x1a@'
p347
tp348
Rp349
sg139
g125
(g129
S'OG\x94\r\x93\x16\x15@'
p350
tp351
Rp352
sg143
I30
sg144
g125
(g129
S'\x8d\x02\xa5\x16<\xaa\x10@'
p353
tp354
Rp355
sa(dp356
g124
g125
(g129
S'&\xd1\x157\x9c\xdd\xe2?'
p357
tp358
Rp359
sg135
g125
(g129
S'Jj\xd7\x98y\x19\x1a@'
p360
tp361
Rp362
sg139
g125
(g129
S'\xcb{l\xa3\xd2C\x17@'
p363
tp364
Rp365
sg143
I30
sg144
g125
(g129
S'm\xe5@I\xdd6\x13@'
p366
tp367
Rp368
sa(dp369
g124
g125
(g129
S'\xb2\xeb#\x89\xb0\xcb\xd6?'
p370
tp371
Rp372
sg135
g125
(g129
S'Jj\xd7\x98y\x19\x1a@'
p373
tp374
Rp375
sg139
g125
(g129
S'\xc3!\x9aUS\x18\x19@'
p376
tp377
Rp378
sg143
I30
sg144
g125
(g129
S'`\x0b\x0c\xa1\xef\x05\x17@'
p379
tp380
Rp381
sa(dp382
g124
g125
(g129
S'\x00\x00\x00\x00\x00\x00\xd0<'
p383
tp384
Rp385
sg135
g125
(g129
S'Jj\xd7\x98y\x19\x1a@'
p386
tp387
Rp388
sg139
g125
(g129
S'Ij\xd7\x98y\x19\x1a@'
p389
tp390
Rp391
sg143
I30
sg144
g125
(g129
S'Jj\xd7\x98y\x19\x1a@'
p392
tp393
Rp394
sa(dp395
g124
g125
(g129
S'\x8b\xddN9SM\xdb?'
p396
tp397
Rp398
sg135
g125
(g129
S'\xc1K\xf2\xc0Ee!@'
p399
tp400
Rp401
sg139
g125
(g129
S'\xc9j\x96\x1c#<\x1a@'
p402
tp403
Rp404
sg143
I30
sg144
g125
(g129
S'N.p\xe3\x18\xe1\x16@'
p405
tp406
Rp407
sa(dp408
g124
g125
(g129
S'\t\xa1\xe07\xed\xf0\xe1?'
p409
tp410
Rp411
sg135
g125
(g129
S'\xc1K\xf2\xc0Ee!@'
p412
tp413
Rp414
sg139
g125
(g129
S'\x12\xde\xf2\xc6\xb8\xd1\x1a@'
p415
tp416
Rp417
sg143
I30
sg144
g125
(g129
S'Jj\xd7\x98y\x19\x1a@'
p418
tp419
Rp420
sa(dp421
g124
g125
(g129
S'\xe7\xd6\x01I\xab>\xe4?'
p422
tp423
Rp424
sg135
g125
(g129
S'\xc1K\xf2\xc0Ee!@'
p425
tp426
Rp427
sg139
g125
(g129
S'BS\x87\xd1H\x80\x1b@'
p428
tp429
Rp430
sg143
I30
sg144
g125
(g129
S'2\xd2\xdc\x89\xf3\x18\x1a@'
p431
tp432
Rp433
sa(dp434
g124
g125
(g129
S'H\x9a\xb5S\xee\x9b\xe7?'
p435
tp436
Rp437
sg135
g125
(g129
S'\xc1K\xf2\xc0Ee!@'
p438
tp439
Rp440
sg139
g125
(g129
S'\xa1bQ\xaa\x03\xfc\x1d@'
p441
tp442
Rp443
sg143
I30
sg144
g125
(g129
S'Jj\xd7\x98y\x19\x1a@'
p444
tp445
Rp446
sa(dp447
g124
g125
(g129
S'91\x86\xffP\xdf\xdf?'
p448
tp449
Rp450
sg135
g125
(g129
S'\xc1K\xf2\xc0Ee!@'
p451
tp452
Rp453
sg139
g125
(g129
S'\x00\xd0\x13\x84\xb5>\x1f@'
p454
tp455
Rp456
sg143
I30
sg144
g125
(g129
S'\xf7\x9d\xd6cN\x01\x1e@'
p457
tp458
Rp459
sa(dp460
g124
g125
(g129
S'\xdb\xa0\x87\xa5W\xc4\xe3?'
p461
tp462
Rp463
sg135
g125
(g129
S']\x0fc\x0f\x1et#@'
p464
tp465
Rp466
sg139
g125
(g129
S'C\xcb\xcd`\xf0\xab @'
p467
tp468
Rp469
sg143
I30
sg144
g125
(g129
S'\xf7\x9d\xd6cN\x01\x1e@'
p470
tp471
Rp472
sa(dp473
g124
g125
(g129
S'pYXA2\x17\xdb?'
p474
tp475
Rp476
sg135
g125
(g129
S']\x0fc\x0f\x1et#@'
p477
tp478
Rp479
sg139
g125
(g129
S'\x949C\x8a\xe9n!@'
p480
tp481
Rp482
sg143
I30
sg144
g125
(g129
S'\xf7\x9d\xd6cN\x01\x1e@'
p483
tp484
Rp485
sa(dp486
g124
g125
(g129
S'BZ\x85H\xb0\x1c\xd8?'
p487
tp488
Rp489
sg135
g125
(g129
S']\x0fc\x0f\x1et#@'
p490
tp491
Rp492
sg139
g125
(g129
S'G\x1d\x90\x83\x1a\xf6!@'
p493
tp494
Rp495
sg143
I30
sg144
g125
(g129
S'\xc1K\xf2\xc0Ee!@'
p496
tp497
Rp498
sa(dp499
g124
g125
(g129
S'I\xd0\xf6{\xb1\xdf\xdb?'
p500
tp501
Rp502
sg135
g125
(g129
S']\x0fc\x0f\x1et#@'
p503
tp504
Rp505
sg139
g125
(g129
S'\xaaY\xce\x9d\x00k"@'
p506
tp507
Rp508
sg143
I30
sg144
g125
(g129
S'\x13m\x8c\xda\\x @'
p509
tp510
Rp511
sa(dp512
g124
g125
(g129
S'\xad\x18\xcb\x19:@\xd2?'
p513
tp514
Rp515
sg135
g125
(g129
S']\x0fc\x0f\x1et#@'
p516
tp517
Rp518
sg139
g125
(g129
S'&\xf8\xb1F\x07\xf0"@'
p519
tp520
Rp521
sg143
I30
sg144
g125
(g129
S'\xc1K\xf2\xc0Ee!@'
p522
tp523
Rp524
sa(dp525
g124
g125
(g129
S'&uB\xbf+P\xca?'
p526
tp527
Rp528
sg135
g125
(g129
S']\x0fc\x0f\x1et#@'
p529
tp530
Rp531
sg139
g125
(g129
S'\xe9@\xa1\xfcb;#@'
p532
tp533
Rp534
sg143
I30
sg144
g125
(g129
S'JtF\xcd\xa4K"@'
p535
tp536
Rp537
sa(dp538
g124
g125
(g129
S'\xb2\x1c\xdd*U\x99\xc0?'
p539
tp540
Rp541
sg135
g125
(g129
S']\x0fc\x0f\x1et#@'
p542
tp543
Rp544
sg139
g125
(g129
S'\x10\xdf\xf5\xce\xe3_#@'
p545
tp546
Rp547
sg143
I30
sg144
g125
(g129
S'JtF\xcd\xa4K"@'
p548
tp549
Rp550
sa(dp551
g124
g125
(g129
S'\x16\xf4\xec&\xa3Y\xb5?'
p552
tp553
Rp554
sg135
g125
(g129
S']\x0fc\x0f\x1et#@'
p555
tp556
Rp557
sg139
g125
(g129
S'w@7C#g#@'
p558
tp559
Rp560
sg143
I30
sg144
g125
(g129
S'd2\'g\xcd\x8c"@'
p561
tp562
Rp563
sa(dp564
g124
g125
(g129
S'\x02\xa0\x13\xf0\x06n\xc3?'
p565
tp566
Rp567
sg135
g125
(g129
S'g.\xbc\xf4d\xe0$@'
p568
tp569
Rp570
sg139
g125
(g129
S'\x04\xb9\xa2[#t#@'
p571
tp572
Rp573
sg143
I30
sg144
g125
(g129
S'\xef3f^\x89\xa6"@'
p574
tp575
Rp576
sa(dp577
g124
g125
(g129
S'g<\xf7\xa3[\xed\xc2?'
p578
tp579
Rp580
sg135
g125
(g129
S'g.\xbc\xf4d\xe0$@'
p581
tp582
Rp583
sg139
g125
(g129
S'\x9cx\x9c\xcb\xeet#@'
p584
tp585
Rp586
sg143
I30
sg144
g125
(g129
S'\xad\xa7\xaa}`\xbe"@'
p587
tp588
Rp589
sa(dp590
g124
g125
(g129
S'Z\x1b\xcf_b\x93\xcc?'
p591
tp592
Rp593
sg135
g125
(g129
S'0\x83\x89\x0e\x0b\x1c$@'
p594
tp595
Rp596
sg139
g125
(g129
S'^!`X\x8b]#@'
p597
tp598
Rp599
sg143
I30
sg144
g125
(g129
S'\xa9J>\x85\x1c\x14!@'
p600
tp601
Rp602
sa(dp603
g124
g125
(g129
S'\x1aG\x80\xfc\xf3\x84\xcc?'
p604
tp605
Rp606
sg135
g125
(g129
S'z\x81$(v\x8e%@'
p607
tp608
Rp609
sg139
g125
(g129
S'\xd5J\\F\x03\xa5#@'
p610
tp611
Rp612
sg143
I30
sg144
g125
(g129
S'\xdbv)>\x99L#@'
p613
tp614
Rp615
sa(dp616
g124
g125
(g129
S'\xffF\x99\xde\xac\xc7\xdf?'
p617
tp618
Rp619
sg135
g125
(g129
S'\xb8\xe8\x007$\xa9(@'
p620
tp621
Rp622
sg139
g125
(g129
S':Nz\xc4\xdf\xe4#@'
p623
tp624
Rp625
sg143
I30
sg144
g125
(g129
S']\x0fc\x0f\x1et#@'
p626
tp627
Rp628
sa(dp629
g124
g125
(g129
S'\xac^\x98E\xd0\x18\xed?'
p630
tp631
Rp632
sg135
g125
(g129
S'\xb8\xe8\x007$\xa9(@'
p633
tp634
Rp635
sg139
g125
(g129
S'\t\xfd\x99y\xd7\xe1$@'
p636
tp637
Rp638
sg143
I30
sg144
g125
(g129
S']\x0fc\x0f\x1et#@'
p639
tp640
Rp641
sa(dp642
g124
g125
(g129
S'\x94\xf8\xebso\xd5\xf2?'
p643
tp644
Rp645
sg135
g125
(g129
S'z\xff(x\xaf\x9a+@'
p646
tp647
Rp648
sg139
g125
(g129
S'[\xa7e\x1e\xa0\xd5&@'
p649
tp650
Rp651
sg143
I30
sg144
g125
(g129
S']\x0fc\x0f\x1et#@'
p652
tp653
Rp654
sa(dp655
g124
g125
(g129
S'NN\xbb\x0c\x8a\xb7\xf0?'
p656
tp657
Rp658
sg135
g125
(g129
S'E\x9c\xecD\xa7\x00/@'
p659
tp660
Rp661
sg139
g125
(g129
S'RT\xdc\xed\x87\xd6(@'
p662
tp663
Rp664
sg143
I30
sg144
g125
(g129
S']\x0fc\x0f\x1et#@'
p665
tp666
Rp667
sa(dp668
g124
g125
(g129
S'\x07{\xe0\x96\xc7l\xf0?'
p669
tp670
Rp671
sg135
g125
(g129
S'E\x9c\xecD\xa7\x00/@'
p672
tp673
Rp674
sg139
g125
(g129
S'\xeez\x8cPv\xb3*@'
p675
tp676
Rp677
sg143
I30
sg144
g125
(g129
S'\xb8\xe8\x007$\xa9(@'
p678
tp679
Rp680
sa(dp681
g124
g125
(g129
S'\xf0\xe5K\xee\xc8\\\xee?'
p682
tp683
Rp684
sg135
g125
(g129
S'E\x9c\xecD\xa7\x00/@'
p685
tp686
Rp687
sg139
g125
(g129
S'\xa4\xb2L\xf9\xc2\xce+@'
p688
tp689
Rp690
sg143
I30
sg144
g125
(g129
S'\xe2\xb2Sm\x18\xff)@'
p691
tp692
Rp693
sa(dp694
g124
g125
(g129
S'\xf4\xfe=\x18\x9a\xf1\xea?'
p695
tp696
Rp697
sg135
g125
(g129
S'E\x9c\xecD\xa7\x00/@'
p698
tp699
Rp700
sg139
g125
(g129
S'S\xd8\x97\xd2\xaa\x87-@'
p701
tp702
Rp703
sg143
I30
sg144
g125
(g129
S'z\xff(x\xaf\x9a+@'
p704
tp705
Rp706
sa(dp707
g124
g125
(g129
S'74\xbb\xa6\x99\xd4\xd5?'
p708
tp709
Rp710
sg135
g125
(g129
S'E\x9c\xecD\xa7\x00/@'
p711
tp712
Rp713
sg139
g125
(g129
S'\xbc\xc4\x8e\x84\xbb\xd0.@'
p714
tp715
Rp716
sg143
I30
sg144
g125
(g129
S'z\xff(x\xaf\x9a+@'
p717
tp718
Rp719
sa(dp720
g124
g125
(g129
S'k\xc9\xf4\x14\xb3Q\xb4?'
p721
tp722
Rp723
sg135
g125
(g129
S'E\x9c\xecD\xa7\x00/@'
p724
tp725
Rp726
sg139
g125
(g129
S'lO\x89\xcbd\xf6.@'
p727
tp728
Rp729
sg143
I30
sg144
g125
(g129
S'"BJ\xd2\x1c3.@'
p730
tp731
Rp732
sa(dp733
g124
g125
(g129
S'\x95J\x04\x1e}*\xc6?'
p734
tp735
Rp736
sg135
g125
(g129
S'\x06\x1a8qRd0@'
p737
tp738
Rp739
sg139
g125
(g129
S'`(\xd1,\xba\x16/@'
p740
tp741
Rp742
sg143
I30
sg144
g125
(g129
S'E\x9c\xecD\xa7\x00/@'
p743
tp744
Rp745
sa(dp746
g124
g125
(g129
S'=r\xa6\x15\xb2\x97\xd0?'
p747
tp748
Rp749
sg135
g125
(g129
S'\x06\x1a8qRd0@'
p750
tp751
Rp752
sg139
g125
(g129
S'\xc0\xd7\xeb\x01,O/@'
p753
tp754
Rp755
sg143
I30
sg144
g125
(g129
S'E\x9c\xecD\xa7\x00/@'
p756
tp757
Rp758
sa(dp759
g124
g125
(g129
S'\xe2\xc9i\xe1\xa4\xd4\xd0?'
p760
tp761
Rp762
sg135
g125
(g129
S'\x06\x1a8qRd0@'
p763
tp764
Rp765
sg139
g125
(g129
S'\x03\xfb!\xef\x8aq/@'
p766
tp767
Rp768
sg143
I30
sg144
g125
(g129
S'E\x9c\xecD\xa7\x00/@'
p769
tp770
Rp771
sa(dp772
g124
g125
(g129
S'\x15\x1b;hJ\xc4\xda?'
p773
tp774
Rp775
sg135
g125
(g129
S'\x06\x1a8qRd0@'
p776
tp777
Rp778
sg139
g125
(g129
S'oA[v\x9f\xb4/@'
p779
tp780
Rp781
sg143
I30
sg144
g125
(g129
S'\x81\xea\x10<\x99\x16-@'
p782
tp783
Rp784
sa(dp785
g124
g125
(g129
S'\xb3\xf2<\x86\x97\xcb\xd7?'
p786
tp787
Rp788
sg135
g125
(g129
S'\x06\x1a8qRd0@'
p789
tp790
Rp791
sg139
g125
(g129
S'T\xcb\\\xb0i\xf6/@'
p792
tp793
Rp794
sg143
I30
sg144
g125
(g129
S'\x87\xb5\x86\xeb\xb9\x89-@'
p795
tp796
Rp797
sa(dp798
g124
g125
(g129
S']\x9e\xb5\xb7y\x88\xd9?'
p799
tp800
Rp801
sg135
g125
(g129
S'\xce2\xa8I.\xbf1@'
p802
tp803
Rp804
sg139
g125
(g129
S'y\xe5\xb5\xcd\rE0@'
p805
tp806
Rp807
sg143
I30
sg144
g125
(g129
S'E\x9c\xecD\xa7\x00/@'
p808
tp809
Rp810
sa(dp811
g124
g125
(g129
S'\xd0\xd9\x84.\xa2\xdf\xd5?'
p812
tp813
Rp814
sg135
g125
(g129
S'\xce2\xa8I.\xbf1@'
p815
tp816
Rp817
sg139
g125
(g129
S'7(:\xa3\x94s0@'
p818
tp819
Rp820
sg143
I30
sg144
g125
(g129
S'\xd3o1\xd4\xe0\xce/@'
p821
tp822
Rp823
sa(dp824
g124
g125
(g129
S'\x9f\xbd\xb8\xb4\xcf\xaa\xe3?'
p825
tp826
Rp827
sg135
g125
(g129
S'\xf5\x17\xba{\t\xe42@'
p828
tp829
Rp830
sg139
g125
(g129
S'\x8a\x0b\x8d\x98\xca\xbf0@'
p831
tp832
Rp833
sg143
I30
sg144
g125
(g129
S'\x06\x1a8qRd0@'
p834
tp835
Rp836
sa(dp837
g124
g125
(g129
S'\x8d\xf2,\xa1t\x1b\xec?'
p838
tp839
Rp840
sg135
g125
(g129
S'\xde!\x93<:k3@'
p841
tp842
Rp843
sg139
g125
(g129
S'\x8aO\xa5R\xa7M1@'
p844
tp845
Rp846
sg143
I30
sg144
g125
(g129
S'\x06\x1a8qRd0@'
p847
tp848
Rp849
sa(dp850
g124
g125
(g129
S'\r\x90\xb2\xbb\x8a1\xec?'
p851
tp852
Rp853
sg135
g125
(g129
S'fQ\x05\xc06\x1c4@'
p854
tp855
Rp856
sg139
g125
(g129
S'\xe3+,\xdb\xbc42@'
p857
tp858
Rp859
sg143
I30
sg144
g125
(g129
S'\x06\x1a8qRd0@'
p860
tp861
Rp862
sa(dp863
g124
g125
(g129
S'{q\xb4\x18T\x95\xec?'
p864
tp865
Rp866
sg135
g125
(g129
S'fQ\x05\xc06\x1c4@'
p867
tp868
Rp869
sg139
g125
(g129
S'\x9d\x85\r\xd6\xd3\xb52@'
p870
tp871
Rp872
sg143
I30
sg144
g125
(g129
S'A\x02\xaac\xc4\x890@'
p873
tp874
Rp875
sa(dp876
g124
g125
(g129
S'\x0b\x88\xb5\x99b\xd7\xdf?'
p877
tp878
Rp879
sg135
g125
(g129
S'fQ\x05\xc06\x1c4@'
p880
tp881
Rp882
sg139
g125
(g129
S'\xc6\xacDt\xb0t3@'
p883
tp884
Rp885
sg143
I30
sg144
g125
(g129
S'\xce2\xa8I.\xbf1@'
p886
tp887
Rp888
sa(dp889
g124
g125
(g129
S'q\xe4\xb4\x04EX\xd7?'
p890
tp891
Rp892
sg135
g125
(g129
S'fQ\x05\xc06\x1c4@'
p893
tp894
Rp895
sg139
g125
(g129
S'\x1d\xd8\xd1\xfe\xa4\xb53@'
p896
tp897
Rp898
sg143
I30
sg144
g125
(g129
S'\xf5\x17\xba{\t\xe42@'
p899
tp900
Rp901
sa(dp902
g124
g125
(g129
S'#5\r<O\xa4\xda?'
p903
tp904
Rp905
sg135
g125
(g129
S'fQ\x05\xc06\x1c4@'
p906
tp907
Rp908
sg139
g125
(g129
S'E\xb9\xc6\x13R\xd83@'
p909
tp910
Rp911
sg143
I30
sg144
g125
(g129
S'm)\xb3/K`2@'
p912
tp913
Rp914
sa(dp915
g124
g125
(g129
S'\n(\xc7\x87 \xc5\xbf?'
p916
tp917
Rp918
sg135
g125
(g129
S'fQ\x05\xc06\x1c4@'
p919
tp920
Rp921
sg139
g125
(g129
S'\xe0`_wP\x164@'
p922
tp923
Rp924
sg143
I30
sg144
g125
(g129
S'\xde!\x93<:k3@'
p925
tp926
Rp927
sa(dp928
g124
g125
(g129
S'}\x9f\x984kp\xdc?'
p929
tp930
Rp931
sg135
g125
(g129
S'\xea%\xe8\x816E6@'
p932
tp933
Rp934
sg139
g125
(g129
S'\xcf\xc2y@\xf2$4@'
p935
tp936
Rp937
sg143
I30
sg144
g125
(g129
S'G\xc7\xc7\x0b0\xf92@'
p938
tp939
Rp940
sa(dp941
g124
g125
(g129
S'I\xca)\xa5\xe9\x9d\xe7?'
p942
tp943
Rp944
sg135
g125
(g129
S'\xea%\xe8\x816E6@'
p945
tp946
Rp947
sg139
g125
(g129
S'J\tH&\xd4l4@'
p948
tp949
Rp950
sg143
I30
sg144
g125
(g129
S'fQ\x05\xc06\x1c4@'
p951
tp952
Rp953
sa(dp954
g124
g125
(g129
S'\x82D\x81B1\x9a\xee?'
p955
tp956
Rp957
sg135
g125
(g129
S'QFs\xbab\xcb6@'
p958
tp959
Rp960
sg139
g125
(g129
S'\t\x91\xc3\xabN\xd04@'
p961
tp962
Rp963
sg143
I30
sg144
g125
(g129
S'fQ\x05\xc06\x1c4@'
p964
tp965
Rp966
sa(dp967
g124
g125
(g129
S'T\x93\x97z=m\xef?'
p968
tp969
Rp970
sg135
g125
(g129
S'QFs\xbab\xcb6@'
p971
tp972
Rp973
sg139
g125
(g129
S'{\xf6\xc4:V\xae5@'
p974
tp975
Rp976
sg143
I30
sg144
g125
(g129
S'fQ\x05\xc06\x1c4@'
p977
tp978
Rp979
sa(dp980
g124
g125
(g129
S'\x13\x0b\xb9\xc7\xfb\x88\xe6?'
p981
tp982
Rp983
sg135
g125
(g129
S'QFs\xbab\xcb6@'
p984
tp985
Rp986
sg139
g125
(g129
S'f!\x7f\xa2\xd4G6@'
p987
tp988
Rp989
sg143
I30
sg144
g125
(g129
S'\x07\x1a\x89WQ\x913@'
p990
tp991
Rp992
sa(dp993
g124
g125
(g129
S'\xa3\xd3\x95\xa6\x91L\xd0?'
p994
tp995
Rp996
sg135
g125
(g129
S'QFs\xbab\xcb6@'
p997
tp998
Rp999
sg139
g125
(g129
S'\x11\xae\xa7\xcc/\x9d6@'
p1000
tp1001
Rp1002
sg143
I30
sg144
g125
(g129
S'\x92\xa4%\xef\xcb\xdc5@'
p1003
tp1004
Rp1005
sa(dp1006
g124
g125
(g129
S'\xfd\xb3~\xc7(\xbf\xdd?'
p1007
tp1008
Rp1009
sg135
g125
(g129
S'T\xf8\xe7\x87\xad\xab8@'
p1010
tp1011
Rp1012
sg139
g125
(g129
S'\xf0\xa7E\xaa~\xd56@'
p1013
tp1014
Rp1015
sg143
I30
sg144
g125
(g129
S'\xea%\xe8\x816E6@'
p1016
tp1017
Rp1018
sa(dp1019
g124
g125
(g129
S"u\x1b\xad\xdc\x0e'\xe9?"
p1020
tp1021
Rp1022
sg135
g125
(g129
S'T\xf8\xe7\x87\xad\xab8@'
p1023
tp1024
Rp1025
sg139
g125
(g129
S'T?U\xc8\x9aM7@'
p1026
tp1027
Rp1028
sg143
I30
sg144
g125
(g129
S'SX\xdf`\xce\xa96@'
p1029
tp1030
Rp1031
sa(dp1032
g124
g125
(g129
S'<)"\x89x\x80\xea?'
p1033
tp1034
Rp1035
sg135
g125
(g129
S'T\xf8\xe7\x87\xad\xab8@'
p1036
tp1037
Rp1038
sg139
g125
(g129
S'\x13\xf16:D\xf67@'
p1039
tp1040
Rp1041
sg143
I30
sg144
g125
(g129
S'SX\xdf`\xce\xa96@'
p1042
tp1043
Rp1044
sa(dp1045
g124
g125
(g129
S'\xdbP\x9d\x02\xees\xde?'
p1046
tp1047
Rp1048
sg135
g125
(g129
S'\xc8djol\xd99@'
p1049
tp1050
Rp1051
sg139
g125
(g129
S'\x1dK\xdfd\xd3\x8c8@'
p1052
tp1053
Rp1054
sg143
I30
sg144
g125
(g129
S'\xc5\x14\xd1\xb1\xe787@'
p1055
tp1056
Rp1057
sa(dp1058
g124
g125
(g129
S'?:\xd9Vg7\xd5?'
p1059
tp1060
Rp1061
sg135
g125
(g129
S'\xc8djol\xd99@'
p1062
tp1063
Rp1064
sg139
g125
(g129
S'\xd5{\x05_I\xcf8@'
p1065
tp1066
Rp1067
sg143
I30
sg144
g125
(g129
S'T\xf8\xe7\x87\xad\xab8@'
p1068
tp1069
Rp1070
sa(dp1071
g124
g125
(g129
S'!\x0c\xda\xbfx!\xdb?'
p1072
tp1073
Rp1074
sg135
g125
(g129
S'\xc8djol\xd99@'
p1075
tp1076
Rp1077
sg139
g125
(g129
S"\x80o'2\xbb\xed8@"
p1078
tp1079
Rp1080
sg143
I30
sg144
g125
(g129
S'T\xf8\xe7\x87\xad\xab8@'
p1081
tp1082
Rp1083
sa(dp1084
g124
g125
(g129
S'\xd7H\xcb\x9a\xfbv\xe1?'
p1085
tp1086
Rp1087
sg135
g125
(g129
S'\xc8djol\xd99@'
p1088
tp1089
Rp1090
sg139
g125
(g129
S'.@\x16\xd4\x0b\x1d9@'
p1091
tp1092
Rp1093
sg143
I30
sg144
g125
(g129
S'M\x1b\xcb\xbc\xe8\xe67@'
p1094
tp1095
Rp1096
sa(dp1097
g124
g125
(g129
S'j\xfcE\xa9r\xd0\xda?'
p1098
tp1099
Rp1100
sg135
g125
(g129
S'\xc8djol\xd99@'
p1101
tp1102
Rp1103
sg139
g125
(g129
S'\xfa\x10\xac\xea$\x859@'
p1104
tp1105
Rp1106
sg143
I30
sg144
g125
(g129
S'T\xf8\xe7\x87\xad\xab8@'
p1107
tp1108
Rp1109
sa(dp1110
g124
g125
(g129
S'\x00\x85l8\x15\x81\xd2?'
p1111
tp1112
Rp1113
sg135
g125
(g129
S'\xceZ_\xd5\xb89:@'
p1114
tp1115
Rp1116
sg139
g125
(g129
S'\x8a\xebk\x1f\x03\xb79@'
p1117
tp1118
Rp1119
sg143
I30
sg144
g125
(g129
S'\xecG%\xa5\xfe\xd48@'
p1120
tp1121
Rp1122
sa(dp1123
g124
g125
(g129
S'\x80c\x0b\xa6P\xa3\xc9?'
p1124
tp1125
Rp1126
sg135
g125
(g129
S'\xceZ_\xd5\xb89:@'
p1127
tp1128
Rp1129
sg139
g125
(g129
S'\xc70i;O\xcd9@'
p1130
tp1131
Rp1132
sg143
I30
sg144
g125
(g129
S'\xf6\xd2b\xff\x99F9@'
p1133
tp1134
Rp1135
sa(dp1136
g124
g125
(g129
S'\x91VH\x9db\xd3\xb4?'
p1137
tp1138
Rp1139
sg135
g125
(g129
S'\x90\x00\x1a\x94\x9e::@'
p1140
tp1141
Rp1142
sg139
g125
(g129
S'\x00\xd8Ri7\xe39@'
p1143
tp1144
Rp1145
sg143
I30
sg144
g125
(g129
S'\xc8djol\xd99@'
p1146
tp1147
Rp1148
sa(dp1149
g124
g125
(g129
S'\xfd\xdd\x02\xb5@\xfe\xcb?'
p1150
tp1151
Rp1152
sg135
g125
(g129
S'\x90\x00\x1a\x94\x9e::@'
p1153
tp1154
Rp1155
sg139
g125
(g129
S':\x96\x90\xcd@\xe69@'
p1156
tp1157
Rp1158
sg143
I30
sg144
g125
(g129
S'Hh\x82U`\xfb8@'
p1159
tp1160
Rp1161
sa(dp1162
g124
g125
(g129
S'\xba\x0f\x1b(\x9f\x03\xd7?'
p1163
tp1164
Rp1165
sg135
g125
(g129
S',\xea\x89\xc7\x98\x0e;@'
p1166
tp1167
Rp1168
sg139
g125
(g129
S'\x02[)\xaa_\xfb9@'
p1169
tp1170
Rp1171
sg143
I30
sg144
g125
(g129
S'\x0fx\x08\xd9m\x019@'
p1172
tp1173
Rp1174
sa(dp1175
g124
g125
(g129
S'\x18\x1d\x10D\x85\xcc\xde?'
p1176
tp1177
Rp1178
sg135
g125
(g129
S',\xea\x89\xc7\x98\x0e;@'
p1179
tp1180
Rp1181
sg139
g125
(g129
S'\x115r\xc6\xf6W:@'
p1182
tp1183
Rp1184
sg143
I30
sg144
g125
(g129
S'\xc8djol\xd99@'
p1185
tp1186
Rp1187
sa(dp1188
g124
g125
(g129
S'Jb\x13"\xdf}\xe2?'
p1189
tp1190
Rp1191
sg135
g125
(g129
S'\x05\xe6\xa0yl}<@'
p1192
tp1193
Rp1194
sg139
g125
(g129
S'e\xb3\x03\x84O\xc2:@'
p1195
tp1196
Rp1197
sg143
I30
sg144
g125
(g129
S'\xc8djol\xd99@'
p1198
tp1199
Rp1200
sa(dp1201
g124
g125
(g129
S'\x7fK\x8c\xee\x95\xe9\xe1?'
p1202
tp1203
Rp1204
sg135
g125
(g129
S'\x05\xe6\xa0yl}<@'
p1205
tp1206
Rp1207
sg139
g125
(g129
S'2\xa6\n\xd2\xdc";@'
p1208
tp1209
Rp1210
sg143
I30
sg144
g125
(g129
S'\xc8djol\xd99@'
p1211
tp1212
Rp1213
sa(dp1214
g124
g125
(g129
S'\xa1\x91~\x86\xc3\xe4\xe7?'
p1215
tp1216
Rp1217
sg135
g125
(g129
S'\x05\xe6\xa0yl}<@'
p1218
tp1219
Rp1220
sg139
g125
(g129
S'\x00\x18\x18:\x10\x9a;@'
p1221
tp1222
Rp1223
sg143
I30
sg144
g125
(g129
S'\x17\xe6\x15\x8f\x1b\xeb9@'
p1224
tp1225
Rp1226
sa(dp1227
g124
g125
(g129
S';\x95\x04\x1c\xfe\xe3\xe1?'
p1228
tp1229
Rp1230
sg135
g125
(g129
S'\x05\xe6\xa0yl}<@'
p1231
tp1232
Rp1233
sg139
g125
(g129
S'y\x1cv\x93d%<@'
p1234
tp1235
Rp1236
sg143
I30
sg144
g125
(g129
S'u\x9b\xecd\xce\xdf:@'
p1237
tp1238
Rp1239
sa(dp1240
g124
g125
(g129
S'\xcfp3\xb9c\xbd\xc3?'
p1241
tp1242
Rp1243
sg135
g125
(g129
S'\x97:{\x1d\xf0\x8b<@'
p1244
tp1245
Rp1246
sg139
g125
(g129
S'\xc0\xe5\x0f\x83Vq<@'
p1247
tp1248
Rp1249
sg143
I30
sg144
g125
(g129
S'M\xf7\xcc\xb9\x1e\xd1;@'
p1250
tp1251
Rp1252
sa(dp1253
g124
g125
(g129
S'\x1d\x94\xddl\xbf\xf6\x8c?'
p1254
tp1255
Rp1256
sg135
g125
(g129
S'\x97:{\x1d\xf0\x8b<@'
p1257
tp1258
Rp1259
sg139
g125
(g129
S'\xb9\xfc7/d~<@'
p1260
tp1261
Rp1262
sg143
I30
sg144
g125
(g129
S'\x05\xe6\xa0yl}<@'
p1263
tp1264
Rp1265
sa(dp1266
g124
g125
(g129
S'\xb2\x1f\x17\x9d\x0e^\xd1?'
p1267
tp1268
Rp1269
sg135
g125
(g129
S'\xa9Y\xf0\xc5\xb5\x88=@'
p1270
tp1271
Rp1272
sg139
g125
(g129
S'\x91\xd8\x10\x80\xcd}<@'
p1273
tp1274
Rp1275
sg143
I30
sg144
g125
(g129
S'B\x8a\x95J\xfen;@'
p1276
tp1277
Rp1278
sa(dp1279
g124
g125
(g129
S'\xeb\xd9\x99\xec\xa6\xf8\xc1?'
p1280
tp1281
Rp1282
sg135
g125
(g129
S'M\xaap\xdd\xf25=@'
p1283
tp1284
Rp1285
sg139
g125
(g129
S'\xd0\x99\xa5\xeaa\x87<@'
p1286
tp1287
Rp1288
sg143
I30
sg144
g125
(g129
S'\x05\xe6\xa0yl}<@'
p1289
tp1290
Rp1291
sa(dp1292
g124
g125
(g129
S'\xf4d\xc5\xea\xdc\xeb\xcc?'
p1293
tp1294
Rp1295
sg135
g125
(g129
S'T\xec\xc7\x19\x15e=@'
p1296
tp1297
Rp1298
sg139
g125
(g129
S'@\x193\x81\x7f\x99<@'
p1299
tp1300
Rp1301
sg143
I30
sg144
g125
(g129
S'\x05\xe6\xa0yl}<@'
p1302
tp1303
Rp1304
sa(dp1305
g124
g125
(g129
S'\xda2\xfe\xb5\xff;\xe2?'
p1306
tp1307
Rp1308
sg135
g125
(g129
S'`\xc3\xc1\xa9\xb2<>@'
p1309
tp1310
Rp1311
sg139
g125
(g129
S'*\x9ek\xff3\xf5<@'
p1312
tp1313
Rp1314
sg143
I30
sg144
g125
(g129
S'\x05\xe6\xa0yl}<@'
p1315
tp1316
Rp1317
sa(dp1318
g124
g125
(g129
S'\xec\x1c\xd1\xbcv\xc5\xe6?'
p1319
tp1320
Rp1321
sg135
g125
(g129
S'`\xc3\xc1\xa9\xb2<>@'
p1322
tp1323
Rp1324
sg139
g125
(g129
S'\xd1\xce}\x08\xa7S=@'
p1325
tp1326
Rp1327
sg143
I30
sg144
g125
(g129
S'\x05\xe6\xa0yl}<@'
p1328
tp1329
Rp1330
sa(dp1331
g124
g125
(g129
S'z1\x9fq\xb13\xdb?'
p1332
tp1333
Rp1334
sg135
g125
(g129
S'`\xc3\xc1\xa9\xb2<>@'
p1335
tp1336
Rp1337
sg139
g125
(g129
S'\x0b\xd1\x91\x04\x03\xee=@'
p1338
tp1339
Rp1340
sg143
I30
sg144
g125
(g129
S'\x05\xe6\xa0yl}<@'
p1341
tp1342
Rp1343
sa(dp1344
g124
g125
(g129
S'\x89\x8c\x085C\xb0\xb3?'
p1345
tp1346
Rp1347
sg135
g125
(g129
S'`\xc3\xc1\xa9\xb2<>@'
p1348
tp1349
Rp1350
sg139
g125
(g129
S's\xb3\xa4\xd083>@'
p1351
tp1352
Rp1353
sg143
I30
sg144
g125
(g129
S';jMql\xed=@'
p1354
tp1355
Rp1356
sa(dp1357
g124
g125
(g129
S'Y\xff\x84\x83\x04{\xd0?'
p1358
tp1359
Rp1360
sg135
g125
(g129
S'`\xc3\xc1\xa9\xb2<>@'
p1361
tp1362
Rp1363
sg139
g125
(g129
S'\xe2}O\x96\x07+>@'
p1364
tp1365
Rp1366
sg143
I30
sg144
g125
(g129
S'\x16\xf6\x94\xe2/\xd0<@'
p1367
tp1368
Rp1369
sa(dp1370
g124
g125
(g129
S'\x08\xc2\x13\xe5\xc4[\x92?'
p1371
tp1372
Rp1373
sg135
g125
(g129
S'`\xc3\xc1\xa9\xb2<>@'
p1374
tp1375
Rp1376
sg139
g125
(g129
S')\xa9 \xb2\xaf8>@'
p1377
tp1378
Rp1379
sg143
I30
sg144
g125
(g129
S'\xda\x05o\xf1\xe3(>@'
p1380
tp1381
Rp1382
sa(dp1383
g124
g125
(g129
S'mm\xcb\x8a\x0eo\xda?'
p1384
tp1385
Rp1386
sg135
g125
(g129
S'\x08}j\xe0\xec\xf7?@'
p1387
tp1388
Rp1389
sg139
g125
(g129
S'7PynnF>@'
p1390
tp1391
Rp1392
sg143
I30
sg144
g125
(g129
S'\xdf\x87G\x02(j=@'
p1393
tp1394
Rp1395
sa(dp1396
g124
g125
(g129
S'\xc3&\xf1q\x8b\xb8\xe6?'
p1397
tp1398
Rp1399
sg135
g125
(g129
S'\x08}j\xe0\xec\xf7?@'
p1400
tp1401
Rp1402
sg139
g125
(g129
S'\xf9\xd9_\xaa1\x9f>@'
p1403
tp1404
Rp1405
sg143
I30
sg144
g125
(g129
S'?K\xa3(\xd1\x87=@'
p1406
tp1407
Rp1408
sa(dp1409
g124
g125
(g129
S'\x8d\x91$9^a\xe7?'
p1410
tp1411
Rp1412
sg135
g125
(g129
S'\x08}j\xe0\xec\xf7?@'
p1413
tp1414
Rp1415
sg139
g125
(g129
S'bPcT\x81J?@'
p1416
tp1417
Rp1418
sg143
I30
sg144
g125
(g129
S'e\\\x90\xfc\xce9>@'
p1419
tp1420
Rp1421
sa(dp1422
g124
g125
(g129
S'!\xb0\xe2\x01a\x10\xc5?'
p1423
tp1424
Rp1425
sg135
g125
(g129
S'\x8b_\xe11\x0e\x02@@'
p1426
tp1427
Rp1428
sg139
g125
(g129
S'Zi\xd3\r\xba\xdf?@'
p1429
tp1430
Rp1431
sg143
I30
sg144
g125
(g129
S'\nr7]\xd8^?@'
p1432
tp1433
Rp1434
satp1435
Rp1436
(dp1437
g112
I01
sg113
Nsg114
(lp1438
I7
aI7
aI8
aI4
aI11
asg116
I0
sg117
g118
(g4
tp1439
Rp1440
sbsS'fitness'
p1441
g3
(g4
g5
(lp1442
(dp1443
g124
g125
(g129
S'C\xc6u\x81\xc4\xf8\xb6?'
p1444
tp1445
Rp1446
sg135
g125
(g129
S'f\xe6N\x95E\xd8\xf6?'
p1447
tp1448
Rp1449
sg139
g125
(g129
S'\xe7o\xf1\x9e\xa0\x90\xf0?'
p1450
tp1451
Rp1452
sg143
I30
sg144
g125
(g129
S'\xb1c\xc03\x83\xf6\xec?'
p1453
tp1454
Rp1455
sa(dp1456
g124
g125
(g129
S'1\xf0\x13\xe3%\x94\xdb?'
p1457
tp1458
Rp1459
sg135
g125
(g129
S'\x99*\xb9\xf0\x89\x00\x00@'
p1460
tp1461
Rp1462
sg139
g125
(g129
S'\x85(\x95\xc6D\x94\xef?'
p1463
tp1464
Rp1465
sg143
I30
sg144
g125
(g129
S'@\xc4\xe3\xd4\r\xa1\xea\xbf'
p1466
tp1467
Rp1468
sa(dp1469
g124
g125
(g129
S'\xa5\xa7\xbb\xa6\xd0G\xe0?'
p1470
tp1471
Rp1472
sg135
g125
(g129
S'\x88\x1b\x90\xf3\xee\x8c\n@'
p1473
tp1474
Rp1475
sg139
g125
(g129
S'Jl\x0b\xf7\x07\xc1\xf0?'
p1476
tp1477
Rp1478
sg143
I30
sg144
g125
(g129
S'\xd0\xce\x0f\xa4\xaf<\xc8?'
p1479
tp1480
Rp1481
sa(dp1482
g124
g125
(g129
S')\xb8\xdc\xfd\xd5"\xe9?'
p1483
tp1484
Rp1485
sg135
g125
(g129
S'\x88\x1b\x90\xf3\xee\x8c\n@'
p1486
tp1487
Rp1488
sg139
g125
(g129
S'\xcbT\x99\x03\xd7\xf6\xf5?'
p1489
tp1490
Rp1491
sg143
I30
sg144
g125
(g129
S'p\xe9\xefe\x02\xce\xed?'
p1492
tp1493
Rp1494
sa(dp1495
g124
g125
(g129
S'\xf0xK\xe5\xa8\x0c\xeb?'
p1496
tp1497
Rp1498
sg135
g125
(g129
S'\xc5\xc0R\x0f\xe0\xf3\x0f@'
p1499
tp1500
Rp1501
sg139
g125
(g129
S'\x06w\xfb\x8d\xeeH\xf6?'
p1502
tp1503
Rp1504
sg143
I30
sg144
g125
(g129
S'\xba>\x88\x81\x81M\xf0?'
p1505
tp1506
Rp1507
sa(dp1508
g124
g125
(g129
S'\xc0/D\xa6\xa0\x8e\xd6?'
p1509
tp1510
Rp1511
sg135
g125
(g129
S'\x98}\xf1/[\xf8\x02@'
p1512
tp1513
Rp1514
sg139
g125
(g129
S'\xd7\x98\x1a\xe7\x1a\r\xf2?'
p1515
tp1516
Rp1517
sg143
I30
sg144
g125
(g129
S'\xa5\xa6\xaa\xa6\xd7\xd4\xe0?'
p1518
tp1519
Rp1520
sa(dp1521
g124
g125
(g129
S'\xbe\xd4\xb9\x17\x8a\xd7\xdb?'
p1522
tp1523
Rp1524
sg135
g125
(g129
S'\x98}\xf1/[\xf8\x02@'
p1525
tp1526
Rp1527
sg139
g125
(g129
S'S\xc7\xd5{\xfdM\xf3?'
p1528
tp1529
Rp1530
sg143
I30
sg144
g125
(g129
S'R\x81\x8bz\xc0^\xe4?'
p1531
tp1532
Rp1533
sa(dp1534
g124
g125
(g129
S'\xb6\x9a\x1a_Hv\xe0?'
p1535
tp1536
Rp1537
sg135
g125
(g129
S'\x98}\xf1/[\xf8\x02@'
p1538
tp1539
Rp1540
sg139
g125
(g129
S'\x86#\xf3\x87\x13w\xf5?'
p1541
tp1542
Rp1543
sg143
I30
sg144
g125
(g129
S'\xcf\x85>\xcfhb\xee?'
p1544
tp1545
Rp1546
sa(dp1547
g124
g125
(g129
S'\xae\xc0\xcdi\x07d\xe1?'
p1548
tp1549
Rp1550
sg135
g125
(g129
S'\x98}\xf1/[\xf8\x02@'
p1551
tp1552
Rp1553
sg139
g125
(g129
S'\xc9C7z\xcd\xaa\xf4?'
p1554
tp1555
Rp1556
sg143
I30
sg144
g125
(g129
S'(\xaa\xbf\xd7\xfb&\xd0\xbf'
p1557
tp1558
Rp1559
sa(dp1560
g124
g125
(g129
S'\xee\xaa\xef\x08GY\xdf?'
p1561
tp1562
Rp1563
sg135
g125
(g129
S'\x98}\xf1/[\xf8\x02@'
p1564
tp1565
Rp1566
sg139
g125
(g129
S'>\xc9ZP.\xa8\xf7?'
p1567
tp1568
Rp1569
sg143
I30
sg144
g125
(g129
S'\xcf\x85>\xcfhb\xee?'
p1570
tp1571
Rp1572
sa(dp1573
g124
g125
(g129
S'\xdf\xbe\xe4\xaal\xeb\xda?'
p1574
tp1575
Rp1576
sg135
g125
(g129
S'\x14\x13r\xbcu\xe9\x00@'
p1577
tp1578
Rp1579
sg139
g125
(g129
S'+\x91L+c\xe3\xf4?'
p1580
tp1581
Rp1582
sg143
I30
sg144
g125
(g129
S'J\xe3(*6{\xeb?'
p1583
tp1584
Rp1585
sa(dp1586
g124
g125
(g129
S'\xc2\x87\xb8\x90w\x0c\xdc?'
p1587
tp1588
Rp1589
sg135
g125
(g129
S'A\xf5\xb8;\xa1k\x03@'
p1590
tp1591
Rp1592
sg139
g125
(g129
S'\x84\x01I1\xd6\x15\xf5?'
p1593
tp1594
Rp1595
sg143
I30
sg144
g125
(g129
S'\xf0bl\x810U\xf0?'
p1596
tp1597
Rp1598
sa(dp1599
g124
g125
(g129
S'{\xdc\x8e3\xbf\xd2\xe1?'
p1600
tp1601
Rp1602
sg135
g125
(g129
S'\x98a\xacK\xde\xc0\n@'
p1603
tp1604
Rp1605
sg139
g125
(g129
S'$\xcc0[e\x96\xf8?'
p1606
tp1607
Rp1608
sg143
I30
sg144
g125
(g129
S'\xf0bl\x810U\xf0?'
p1609
tp1610
Rp1611
sa(dp1612
g124
g125
(g129
S'\xc0\xc8\xbf\x12\x83;\xe1?'
p1613
tp1614
Rp1615
sg135
g125
(g129
S'\x14\x13r\xbcu\xe9\x00@'
p1616
tp1617
Rp1618
sg139
g125
(g129
S'\xa5o\xda\xbc7t\xfa?'
p1619
tp1620
Rp1621
sg143
I30
sg144
g125
(g129
S'\x8a\xa0\xfa}\xe15\xe2\xbf'
p1622
tp1623
Rp1624
sa(dp1625
g124
g125
(g129
S'\x8e\xf9FH\x82\\\xea?'
p1626
tp1627
Rp1628
sg135
g125
(g129
S'\x14\x13r\xbcu\xe9\x00@'
p1629
tp1630
Rp1631
sg139
g125
(g129
S'\x85zD\x18\xd9/\xf8?'
p1632
tp1633
Rp1634
sg143
I30
sg144
g125
(g129
S'\x8a\xa0\xfa}\xe15\xe2\xbf'
p1635
tp1636
Rp1637
sa(dp1638
g124
g125
(g129
S'\xacP\x192\xae\x0b\xde?'
p1639
tp1640
Rp1641
sg135
g125
(g129
S'\x14\x13r\xbcu\xe9\x00@'
p1642
tp1643
Rp1644
sg139
g125
(g129
S'^\xfa\xb8\xd3\x17-\xfc?'
p1645
tp1646
Rp1647
sg143
I30
sg144
g125
(g129
S'\x8a\xa0\xfa}\xe15\xe2\xbf'
p1648
tp1649
Rp1650
sa(dp1651
g124
g125
(g129
S'\xb9\xa2\x9e\x00\xd1\x95\xe5?'
p1652
tp1653
Rp1654
sg135
g125
(g129
S'\x06\xb7\xbf]\xb2>\x0f@'
p1655
tp1656
Rp1657
sg139
g125
(g129
S'\xa4\n\xb4\xddV\xe8\xfc?'
p1658
tp1659
Rp1660
sg143
I30
sg144
g125
(g129
S'\x8a\xa0\xfa}\xe15\xe2\xbf'
p1661
tp1662
Rp1663
sa(dp1664
g124
g125
(g129
S'\x12bZh=F\xf1?'
p1665
tp1666
Rp1667
sg135
g125
(g129
S'\x06\xb7\xbf]\xb2>\x0f@'
p1668
tp1669
Rp1670
sg139
g125
(g129
S'\x81^\xff\xb5\x84e\xff?'
p1671
tp1672
Rp1673
sg143
I30
sg144
g125
(g129
S'\x8a\xa0\xfa}\xe15\xe2\xbf'
p1674
tp1675
Rp1676
sa(dp1677
g124
g125
(g129
S'\xca\xc2\x88w]\x8d\xec?'
p1678
tp1679
Rp1680
sg135
g125
(g129
S'\x06\xb7\xbf]\xb2>\x0f@'
p1681
tp1682
Rp1683
sg139
g125
(g129
S'\xab\xcc\xdc\xfb\xd1\xec\x01@'
p1684
tp1685
Rp1686
sg143
I30
sg144
g125
(g129
S'\x8a\xa0\xfa}\xe15\xe2\xbf'
p1687
tp1688
Rp1689
sa(dp1690
g124
g125
(g129
S'Q\xba\xc0;ix\xf0?'
p1691
tp1692
Rp1693
sg135
g125
(g129
S'\xbf\x8f+\xf7+\xb3\x0f@'
p1694
tp1695
Rp1696
sg139
g125
(g129
S'\x96\xf4\xeb\xc3\xe5-\x03@'
p1697
tp1698
Rp1699
sg143
I30
sg144
g125
(g129
S'\x8a\xa0\xfa}\xe15\xe2\xbf'
p1700
tp1701
Rp1702
sa(dp1703
g124
g125
(g129
S'Z-)k\xcbK\xec?'
p1704
tp1705
Rp1706
sg135
g125
(g129
S'\x06\xb7\xbf]\xb2>\x0f@'
p1707
tp1708
Rp1709
sg139
g125
(g129
S'\x1d\xfd\x16\x90\x8c\xae\xff?'
p1710
tp1711
Rp1712
sg143
I30
sg144
g125
(g129
S'\xe3\x9b\xc3\xcc\xec\x80\xf0\xbf'
p1713
tp1714
Rp1715
sa(dp1716
g124
g125
(g129
S'N\xb0\x8e\x01\xf5A\xe0?'
p1717
tp1718
Rp1719
sg135
g125
(g129
S'\x06\xb7\xbf]\xb2>\x0f@'
p1720
tp1721
Rp1722
sg139
g125
(g129
S'\xaa"\xc4\xde/#\x02@'
p1723
tp1724
Rp1725
sg143
I30
sg144
g125
(g129
S'\xed{@]\xda\xbd\xfe?'
p1726
tp1727
Rp1728
sa(dp1729
g124
g125
(g129
S'\xc3\xd7\xa1B\x94+\xdf?'
p1730
tp1731
Rp1732
sg135
g125
(g129
S'\xe0H\x18\x9b\xdd\x17\x0c@'
p1733
tp1734
Rp1735
sg139
g125
(g129
S'\x02\xb3\\\xe6\xa6\x10\x02@'
p1736
tp1737
Rp1738
sg143
I30
sg144
g125
(g129
S'\xed{@]\xda\xbd\xfe?'
p1739
tp1740
Rp1741
sa(dp1742
g124
g125
(g129
S'&\xd1\xfcXmb\xea?'
p1743
tp1744
Rp1745
sg135
g125
(g129
S'\xf1\x1d\xef\x13=\xdf\x15@'
p1746
tp1747
Rp1748
sg139
g125
(g129
S'78\xb1\x17\xfa\xb1\x04@'
p1749
tp1750
Rp1751
sg143
I30
sg144
g125
(g129
S'\xed{@]\xda\xbd\xfe?'
p1752
tp1753
Rp1754
sa(dp1755
g124
g125
(g129
S'j\xd8\x98\xdf\xb2K\xe4?'
p1756
tp1757
Rp1758
sg135
g125
(g129
S'\xe2P\xec\xa1\x85\x85\x0c@'
p1759
tp1760
Rp1761
sg139
g125
(g129
S'\x91Q\x18J\xe1\xae\x02@'
p1762
tp1763
Rp1764
sg143
I30
sg144
g125
(g129
S'\xca\xa4\xf3`\xeb\xc8\xee?'
p1765
tp1766
Rp1767
sa(dp1768
g124
g125
(g129
S'\\A\x0e/\r4\xe9?'
p1769
tp1770
Rp1771
sg135
g125
(g129
S'\xb8b\x00\x08\xd8\x83\x0c@'
p1772
tp1773
Rp1774
sg139
g125
(g129
S';\x90\xd8\\\xe1d\x04@'
p1775
tp1776
Rp1777
sg143
I30
sg144
g125
(g129
S'\xca\xa4\xf3`\xeb\xc8\xee?'
p1778
tp1779
Rp1780
sa(dp1781
g124
g125
(g129
S'\xd2\xc8\xa9\x06\x810\xec?'
p1782
tp1783
Rp1784
sg135
g125
(g129
S'\x9d\x80%?\xb7\x8b\x12@'
p1785
tp1786
Rp1787
sg139
g125
(g129
S'<J\xd1\x11XL\x08@'
p1788
tp1789
Rp1790
sg143
I30
sg144
g125
(g129
S'\xca\xa4\xf3`\xeb\xc8\xee?'
p1791
tp1792
Rp1793
sa(dp1794
g124
g125
(g129
S'%\x97\xc0%\xccy\xe7?'
p1795
tp1796
Rp1797
sg135
g125
(g129
S'\xe2I;!\x0e\x11\x11@'
p1798
tp1799
Rp1800
sg139
g125
(g129
S'm\x08\xc4,R\x8c\x08@'
p1801
tp1802
Rp1803
sg143
I30
sg144
g125
(g129
S'\xca\xa4\xf3`\xeb\xc8\xee?'
p1804
tp1805
Rp1806
sa(dp1807
g124
g125
(g129
S'\x1e\xa9\x04\xc1\x0f\xd5\xec?'
p1808
tp1809
Rp1810
sg135
g125
(g129
S'\xe0H\x18\x9b\xdd\x17\x0c@'
p1811
tp1812
Rp1813
sg139
g125
(g129
S'\xc0\x1f\x0b\xf4W\xda\x03@'
p1814
tp1815
Rp1816
sg143
I30
sg144
g125
(g129
S'\xca\xa4\xf3`\xeb\xc8\xee?'
p1817
tp1818
Rp1819
sa(dp1820
g124
g125
(g129
S'\x1b\x11\xb7j\x9b4\xeb?'
p1821
tp1822
Rp1823
sg135
g125
(g129
S'\xe0H\x18\x9b\xdd\x17\x0c@'
p1824
tp1825
Rp1826
sg139
g125
(g129
S'\xdd\x87NN\xbf\xde\x01@'
p1827
tp1828
Rp1829
sg143
I30
sg144
g125
(g129
S'\xca\xa4\xf3`\xeb\xc8\xee?'
p1830
tp1831
Rp1832
sa(dp1833
g124
g125
(g129
S'\xdcC\xc5#e\x9f\xe4?'
p1834
tp1835
Rp1836
sg135
g125
(g129
S'\xe0H\x18\x9b\xdd\x17\x0c@'
p1837
tp1838
Rp1839
sg139
g125
(g129
S's\x0f\x07@;\xb0\x03@'
p1840
tp1841
Rp1842
sg143
I30
sg144
g125
(g129
S'\xca\xa4\xf3`\xeb\xc8\xee?'
p1843
tp1844
Rp1845
sa(dp1846
g124
g125
(g129
S'H\x1c\x8f\x1fE\xbe\xdc?'
p1847
tp1848
Rp1849
sg135
g125
(g129
S'\xe0H\x18\x9b\xdd\x17\x0c@'
p1850
tp1851
Rp1852
sg139
g125
(g129
S'\xa7\x9f\xd27+b\x02@'
p1853
tp1854
Rp1855
sg143
I30
sg144
g125
(g129
S'\xca\xa4\xf3`\xeb\xc8\xee?'
p1856
tp1857
Rp1858
sa(dp1859
g124
g125
(g129
S'\xf7{\x12\xc1\xb7\xd6\xd5?'
p1860
tp1861
Rp1862
sg135
g125
(g129
S'\xb2,\x8e\xd1I\xe6\x0b@'
p1863
tp1864
Rp1865
sg139
g125
(g129
S'm;d\xa1O\xea\x01@'
p1866
tp1867
Rp1868
sg143
I30
sg144
g125
(g129
S'\xca\xa4\xf3`\xeb\xc8\xee?'
p1869
tp1870
Rp1871
sa(dp1872
g124
g125
(g129
S'?\x83M\x9dr\x11\xd9?'
p1873
tp1874
Rp1875
sg135
g125
(g129
S'\x17\x89\x0f%\x00k\x0c@'
p1876
tp1877
Rp1878
sg139
g125
(g129
S'\x90K\x13XA\xf1\x02@'
p1879
tp1880
Rp1881
sg143
I30
sg144
g125
(g129
S'b2Wj\x80\xde\x00@'
p1882
tp1883
Rp1884
sa(dp1885
g124
g125
(g129
S'\xe8w\x9aT\xe1A\xe1?'
p1886
tp1887
Rp1888
sg135
g125
(g129
S'\x17\x89\x0f%\x00k\x0c@'
p1889
tp1890
Rp1891
sg139
g125
(g129
S'W\xde\xb9\xf7\xb1E\x02@'
p1892
tp1893
Rp1894
sg143
I30
sg144
g125
(g129
S'T\x86\x8b\xa2\xa7\xbd\xd7?'
p1895
tp1896
Rp1897
sa(dp1898
g124
g125
(g129
S'\x81\x8d\xbcX\xca\xb7\xe2?'
p1899
tp1900
Rp1901
sg135
g125
(g129
S'>\xd9\xc1\x89\xa6`\r@'
p1902
tp1903
Rp1904
sg139
g125
(g129
S')\xd5\x17;h4\x04@'
p1905
tp1906
Rp1907
sg143
I30
sg144
g125
(g129
S'b2Wj\x80\xde\x00@'
p1908
tp1909
Rp1910
sa(dp1911
g124
g125
(g129
S'\x9dd\xee\x8a\x93(\xd7?'
p1912
tp1913
Rp1914
sg135
g125
(g129
S'\x17\x89\x0f%\x00k\x0c@'
p1915
tp1916
Rp1917
sg139
g125
(g129
S'\x95M{"\xf8a\x02@'
p1918
tp1919
Rp1920
sg143
I30
sg144
g125
(g129
S'b2Wj\x80\xde\x00@'
p1921
tp1922
Rp1923
sa(dp1924
g124
g125
(g129
S' \xeb\x18\x82\xdb\xde\xbf?'
p1925
tp1926
Rp1927
sg135
g125
(g129
S'\xe7\xfb\xff\xb9\x82\xe7\x03@'
p1928
tp1929
Rp1930
sg139
g125
(g129
S'\xcd\xb2\xe3\xfa\n`\x01@'
p1931
tp1932
Rp1933
sg143
I30
sg144
g125
(g129
S'\x8e\xab\x8f\xda\xbcb\x00@'
p1934
tp1935
Rp1936
sa(dp1937
g124
g125
(g129
S'>A\x126\x8c\x98\xba?'
p1938
tp1939
Rp1940
sg135
g125
(g129
S't\xd4b\xe3\xf4\xe3\x04@'
p1941
tp1942
Rp1943
sg139
g125
(g129
S'\x97\xe0\xdd W\x16\x01@'
p1944
tp1945
Rp1946
sg143
I30
sg144
g125
(g129
S'\x8e\xab\x8f\xda\xbcb\x00@'
p1947
tp1948
Rp1949
sa(dp1950
g124
g125
(g129
S'\x13\xfe\xc6c,\xd3\xcc?'
p1951
tp1952
Rp1953
sg135
g125
(g129
S'\x14\x13r\xbcu\xe9\x00@'
p1954
tp1955
Rp1956
sg139
g125
(g129
S'\x0e^\xd2\x81\x0cz\x00@'
p1957
tp1958
Rp1959
sg143
I30
sg144
g125
(g129
S'\xd8!x=\xbbD\xeb?'
p1960
tp1961
Rp1962
sa(dp1963
g124
g125
(g129
S'\x07\xba\xcd\x99fJ\xc4?'
p1964
tp1965
Rp1966
sg135
g125
(g129
S'\x14\x13r\xbcu\xe9\x00@'
p1967
tp1968
Rp1969
sg139
g125
(g129
S'f(^\xbb\x82\x8d\x00@'
p1970
tp1971
Rp1972
sg143
I30
sg144
g125
(g129
S'\x98=\xa1\xb9\xfa3\xf4?'
p1973
tp1974
Rp1975
sa(dp1976
g124
g125
(g129
S"\xa5\x84\xef@\x99'\xd6?"
p1977
tp1978
Rp1979
sg135
g125
(g129
S'\xda\xa1\xdeC\xae\x88\x08@'
p1980
tp1981
Rp1982
sg139
g125
(g129
S'\xa2Q\xa1\x10J=\x00@'
p1983
tp1984
Rp1985
sg143
I30
sg144
g125
(g129
S'\x98=\xa1\xb9\xfa3\xf4?'
p1986
tp1987
Rp1988
sa(dp1989
g124
g125
(g129
S'5N\x9e\xe0\xed\xe3\xda?'
p1990
tp1991
Rp1992
sg135
g125
(g129
S'\x14\x13r\xbcu\xe9\x00@'
p1993
tp1994
Rp1995
sg139
g125
(g129
S'd\xbdgsT\x85\xfd?'
p1996
tp1997
Rp1998
sg143
I30
sg144
g125
(g129
S'\xd5\xec\x05\xe1\xb8\xc9\xe6?'
p1999
tp2000
Rp2001
sa(dp2002
g124
g125
(g129
S'N\xab~;\x88\xd4\xda?'
p2003
tp2004
Rp2005
sg135
g125
(g129
S'\x14\x13r\xbcu\xe9\x00@'
p2006
tp2007
Rp2008
sg139
g125
(g129
S'\xff\xf0\xee\x8f\x88x\xfa?'
p2009
tp2010
Rp2011
sg143
I30
sg144
g125
(g129
S'\x98=\xa1\xb9\xfa3\xf4?'
p2012
tp2013
Rp2014
sa(dp2015
g124
g125
(g129
S'\x19\x9e\xeb/\xbf\xcb\xd0?'
p2016
tp2017
Rp2018
sg135
g125
(g129
S'\x7f\xdb\xb0\xe5D\xb9\x04@'
p2019
tp2020
Rp2021
sg139
g125
(g129
S'\xf2L\x8a\xdeKC\xf5?'
p2022
tp2023
Rp2024
sg143
I30
sg144
g125
(g129
S'\x98=\xa1\xb9\xfa3\xf4?'
p2025
tp2026
Rp2027
sa(dp2028
g124
g125
(g129
S'M\x10+Qk\x94\xc0?'
p2029
tp2030
Rp2031
sg135
g125
(g129
S'\x98=\xa1\xb9\xfa3\xf4?'
p2032
tp2033
Rp2034
sg139
g125
(g129
S'\xc2\x06TRu\xd1\xf3?'
p2035
tp2036
Rp2037
sg143
I30
sg144
g125
(g129
S'\xda\xa0)=\xb1P\xe1?'
p2038
tp2039
Rp2040
sa(dp2041
g124
g125
(g129
S'T\xb9\xcd\xe2\xa1z\xdc?'
p2042
tp2043
Rp2044
sg135
g125
(g129
S'm\x8a\x06Y\xe0\xee\r@'
p2045
tp2046
Rp2047
sg139
g125
(g129
S'\x1c\x1a\xe9Ap\x86\xf5?'
p2048
tp2049
Rp2050
sg143
I30
sg144
g125
(g129
S'\x98=\xa1\xb9\xfa3\xf4?'
p2051
tp2052
Rp2053
sa(dp2054
g124
g125
(g129
S'\x14\x01\xd5?j5\xf0?'
p2055
tp2056
Rp2057
sg135
g125
(g129
S'm\x8a\x06Y\xe0\xee\r@'
p2058
tp2059
Rp2060
sg139
g125
(g129
S'6m\x07\x893\xd4\xfb?'
p2061
tp2062
Rp2063
sg143
I30
sg144
g125
(g129
S'\x00\x8d\xe0\xff\xb1\\\xdc?'
p2064
tp2065
Rp2066
sa(dp2067
g124
g125
(g129
S'\xb0q\x82\x0b\x13\x7f\xf0?'
p2068
tp2069
Rp2070
sg135
g125
(g129
S'm\x8a\x06Y\xe0\xee\r@'
p2071
tp2072
Rp2073
sg139
g125
(g129
S'~;\x1d\x82\x07\xa7\xfb?'
p2074
tp2075
Rp2076
sg143
I30
sg144
g125
(g129
S'\x00\x8d\xe0\xff\xb1\\\xdc?'
p2077
tp2078
Rp2079
sa(dp2080
g124
g125
(g129
S'\x1a\x81\xbe\r\xcb\x83\xec?'
p2081
tp2082
Rp2083
sg135
g125
(g129
S'm\x8a\x06Y\xe0\xee\r@'
p2084
tp2085
Rp2086
sg139
g125
(g129
S']\xd3\x03\xff\x88\xe6\xf9?'
p2087
tp2088
Rp2089
sg143
I30
sg144
g125
(g129
S'\x00\x8d\xe0\xff\xb1\\\xdc?'
p2090
tp2091
Rp2092
sa(dp2093
g124
g125
(g129
S'\x9cgg\xf5x6\xf2?'
p2094
tp2095
Rp2096
sg135
g125
(g129
S'm\x8a\x06Y\xe0\xee\r@'
p2097
tp2098
Rp2099
sg139
g125
(g129
S'\x94\xc1\xb7!B\xe9\xfb?'
p2100
tp2101
Rp2102
sg143
I30
sg144
g125
(g129
S'\x00\x8d\xe0\xff\xb1\\\xdc?'
p2103
tp2104
Rp2105
sa(dp2106
g124
g125
(g129
S'\xfa\xfa\n\xd6\xb9\\\xef?'
p2107
tp2108
Rp2109
sg135
g125
(g129
S'm\x8a\x06Y\xe0\xee\r@'
p2110
tp2111
Rp2112
sg139
g125
(g129
S'\x8a\xe1\xc2\x00\x9cE\xf7?'
p2113
tp2114
Rp2115
sg143
I30
sg144
g125
(g129
S'x\xa3\xf6\xf7.\x81\xcf?'
p2116
tp2117
Rp2118
sa(dp2119
g124
g125
(g129
S'\xa9$6ng+\xe3?'
p2120
tp2121
Rp2122
sg135
g125
(g129
S'm\x8a\x06Y\xe0\xee\r@'
p2123
tp2124
Rp2125
sg139
g125
(g129
S'\xd5\x9b\xbc\xabd\x0b\xf4?'
p2126
tp2127
Rp2128
sg143
I30
sg144
g125
(g129
S'\x00\x8d\xe0\xff\xb1\\\xdc?'
p2129
tp2130
Rp2131
sa(dp2132
g124
g125
(g129
S'?\xfe=\xbaJ`\xd4?'
p2133
tp2134
Rp2135
sg135
g125
(g129
S'\xe0\xe0\xbcn\xcd\x1c\xf8?'
p2136
tp2137
Rp2138
sg139
g125
(g129
S'\x1dq\xe9\xcb<\x92\xf1?'
p2139
tp2140
Rp2141
sg143
I30
sg144
g125
(g129
S'\x00\x8d\xe0\xff\xb1\\\xdc?'
p2142
tp2143
Rp2144
sa(dp2145
g124
g125
(g129
S'RCvMb\x82\xd7?'
p2146
tp2147
Rp2148
sg135
g125
(g129
S'\x1e\xa7\xf0\xdc\x14R\x04@'
p2149
tp2150
Rp2151
sg139
g125
(g129
S'Ec?\xda\x89\xfa\xf2?'
p2152
tp2153
Rp2154
sg143
I30
sg144
g125
(g129
S'\x00\x8d\xe0\xff\xb1\\\xdc?'
p2155
tp2156
Rp2157
sa(dp2158
g124
g125
(g129
S'|n\xd1\xe7"\x8c\xcb?'
p2159
tp2160
Rp2161
sg135
g125
(g129
S'\x98=\xa1\xb9\xfa3\xf4?'
p2162
tp2163
Rp2164
sg139
g125
(g129
S'\x87\xbe\x1f#\x01\t\xf1?'
p2165
tp2166
Rp2167
sg143
I30
sg144
g125
(g129
S'{\xba\x94J\x19\x91\xd9?'
p2168
tp2169
Rp2170
sa(dp2171
g124
g125
(g129
S'u\xbb{9\x82|\xd2?'
p2172
tp2173
Rp2174
sg135
g125
(g129
S'\x93\x035\xd2}j\xfa?'
p2175
tp2176
Rp2177
sg139
g125
(g129
S'\xd2\xb1\x1et\xbb%\xf1?'
p2178
tp2179
Rp2180
sg143
I30
sg144
g125
(g129
S'\x80\xf6\x0b\xe8\x11/\xad\xbf'
p2181
tp2182
Rp2183
sa(dp2184
g124
g125
(g129
S'\xa6W\x18\x17\xd6\xf9\xc9?'
p2185
tp2186
Rp2187
sg135
g125
(g129
S'\x93\x035\xd2}j\xfa?'
p2188
tp2189
Rp2190
sg139
g125
(g129
S'\xb536l3\xc8\xf3?'
p2191
tp2192
Rp2193
sg143
I30
sg144
g125
(g129
S'\xb2x\x12\xce9w\xe2?'
p2194
tp2195
Rp2196
sa(dp2197
g124
g125
(g129
S'\xb1U,\x0cG\xb0\xc1?'
p2198
tp2199
Rp2200
sg135
g125
(g129
S'\x93\x035\xd2}j\xfa?'
p2201
tp2202
Rp2203
sg139
g125
(g129
S'\xfd\n\\\x06$[\xf4?'
p2204
tp2205
Rp2206
sg143
I30
sg144
g125
(g129
S'\x1b\xf5\xbe\x9d\x82o\xf2?'
p2207
tp2208
Rp2209
sa(dp2210
g124
g125
(g129
S'\xa4\x99IU\x16\xcb\xc7?'
p2211
tp2212
Rp2213
sg135
g125
(g129
S"\xe7'{\xa9\x9e\xb8\xff?"
p2214
tp2215
Rp2216
sg139
g125
(g129
S'!\x1b\xb5\xa0\xf4I\xf4?'
p2217
tp2218
Rp2219
sg143
I30
sg144
g125
(g129
S'C\x13\xc8I\x88\xc4\xe7?'
p2220
tp2221
Rp2222
sa(dp2223
g124
g125
(g129
S'\xfb\xc0DxyU\xcc?'
p2224
tp2225
Rp2226
sg135
g125
(g129
S'|7\xfb\x8a\x8d\xe5\x03@'
p2227
tp2228
Rp2229
sg139
g125
(g129
S'\xf6\xdeqf\x11\xcc\xf4?'
p2230
tp2231
Rp2232
sg143
I30
sg144
g125
(g129
S'\x1b\xf5\xbe\x9d\x82o\xf2?'
p2233
tp2234
Rp2235
sa(dp2236
g124
g125
(g129
S'=\xd5\xeefK\x84\xc3?'
p2237
tp2238
Rp2239
sg135
g125
(g129
S'N\xbe3sJ\xc0\x00@'
p2240
tp2241
Rp2242
sg139
g125
(g129
S'\x0c.\xc4\xf3\x95\xc1\xf4?'
p2243
tp2244
Rp2245
sg143
I30
sg144
g125
(g129
S'\x98=\xa1\xb9\xfa3\xf4?'
p2246
tp2247
Rp2248
sa(dp2249
g124
g125
(g129
S'o/nV\xd9\xf9\xcf?'
p2250
tp2251
Rp2252
sg135
g125
(g129
S'N\xbe3sJ\xc0\x00@'
p2253
tp2254
Rp2255
sg139
g125
(g129
S'\x94\x87\xf3)\x8f\xa4\xf5?'
p2256
tp2257
Rp2258
sg143
I30
sg144
g125
(g129
S'\x98=\xa1\xb9\xfa3\xf4?'
p2259
tp2260
Rp2261
sa(dp2262
g124
g125
(g129
S'\x83\xb3\x13\xc3\x1a\xc5\xd3?'
p2263
tp2264
Rp2265
sg135
g125
(g129
S'N\xbe3sJ\xc0\x00@'
p2266
tp2267
Rp2268
sg139
g125
(g129
S'\x1c\xe1"`\x88\x87\xf6?'
p2269
tp2270
Rp2271
sg143
I30
sg144
g125
(g129
S'\x98=\xa1\xb9\xfa3\xf4?'
p2272
tp2273
Rp2274
sa(dp2275
g124
g125
(g129
S'\xd1,\xea|\x8eh\xd2?'
p2276
tp2277
Rp2278
sg135
g125
(g129
S'N\xbe3sJ\xc0\x00@'
p2279
tp2280
Rp2281
sg139
g125
(g129
S'\x16`\x9c\xe0.\x85\xf4?'
p2282
tp2283
Rp2284
sg143
I30
sg144
g125
(g129
S'\x08w\xd3\xb1\xec\xe8\xc9?'
p2285
tp2286
Rp2287
sa(dp2288
g124
g125
(g129
S'=L\x1f\xe5\xab2\x9a?'
p2289
tp2290
Rp2291
sg135
g125
(g129
S'[\xc9yQ\x87\xbd\xf4?'
p2292
tp2293
Rp2294
sg139
g125
(g129
S"N\x0f'r\xcf%\xf4?"
p2295
tp2296
Rp2297
sg143
I30
sg144
g125
(g129
S'\x08Ew\xc1[\x01\xf2?'
p2298
tp2299
Rp2300
sa(dp2301
g124
g125
(g129
S'<L\x1f\xe5\xab2\x9a?'
p2302
tp2303
Rp2304
sg135
g125
(g129
S'[\xc9yQ\x87\xbd\xf4?'
p2305
tp2306
Rp2307
sg139
g125
(g129
S"N\x0f'r\xcf%\xf4?"
p2308
tp2309
Rp2310
sg143
I30
sg144
g125
(g129
S'\x08Ew\xc1[\x01\xf2?'
p2311
tp2312
Rp2313
sa(dp2314
g124
g125
(g129
S'\xa3\xb2^\xe9\xf8\xa6\xa8?'
p2315
tp2316
Rp2317
sg135
g125
(g129
S'\x98=\xa1\xb9\xfa3\xf4?'
p2318
tp2319
Rp2320
sg139
g125
(g129
S'\x9e\xdfee\x12\xdd\xf3?'
p2321
tp2322
Rp2323
sg143
I30
sg144
g125
(g129
S'\x08Ew\xc1[\x01\xf2?'
p2324
tp2325
Rp2326
sa(dp2327
g124
g125
(g129
S'&\xec6\x16\xd8\xa2\xd4?'
p2328
tp2329
Rp2330
sg135
g125
(g129
S'\x98=\xa1\xb9\xfa3\xf4?'
p2331
tp2332
Rp2333
sg139
g125
(g129
S'f`\xc3\xda\xbfP\xf2?'
p2334
tp2335
Rp2336
sg143
I30
sg144
g125
(g129
S'\xe0\xb4T\x18\x10\xc0\xa7?'
p2337
tp2338
Rp2339
sa(dp2340
g124
g125
(g129
S"'}\x05\xe3\xe4V\xc9?"
p2341
tp2342
Rp2343
sg135
g125
(g129
S'\x98=\xa1\xb9\xfa3\xf4?'
p2344
tp2345
Rp2346
sg139
g125
(g129
S'\xcc)\xdd\xceQZ\xf3?'
p2347
tp2348
Rp2349
sg143
I30
sg144
g125
(g129
S'P\x18\x1d\xa6V\x18\xd1?'
p2350
tp2351
Rp2352
sa(dp2353
g124
g125
(g129
S'\xef\r\x91n\xfeT\xc0?'
p2354
tp2355
Rp2356
sg135
g125
(g129
S'\x98=\xa1\xb9\xfa3\xf4?'
p2357
tp2358
Rp2359
sg139
g125
(g129
S'\xe4[\x86\\M\xa8\xf3?'
p2360
tp2361
Rp2362
sg143
I30
sg144
g125
(g129
S'\x1a\x08\x1c\x8a\xa4\t\xe8?'
p2363
tp2364
Rp2365
sa(dp2366
g124
g125
(g129
S'Mlc\xbe\x85G\xca?'
p2367
tp2368
Rp2369
sg135
g125
(g129
S'\x98=\xa1\xb9\xfa3\xf4?'
p2370
tp2371
Rp2372
sg139
g125
(g129
S'\xdf\xc6a\xcf\x1fo\xf2?'
p2373
tp2374
Rp2375
sg143
I30
sg144
g125
(g129
S'\x1a\x08\x1c\x8a\xa4\t\xe8?'
p2376
tp2377
Rp2378
sa(dp2379
g124
g125
(g129
S'R>h~U\xc5\xd1?'
p2380
tp2381
Rp2382
sg135
g125
(g129
S'\x0eH*\xad\x97Z\xfa?'
p2383
tp2384
Rp2385
sg139
g125
(g129
S'M\xd3\xe5.\x9a#\xf1?'
p2386
tp2387
Rp2388
sg143
I30
sg144
g125
(g129
S"\xd08z'[\xc1\xdf?"
p2389
tp2390
Rp2391
sa(dp2392
g124
g125
(g129
S'@I\xde\x84\xd3_\xd4?'
p2393
tp2394
Rp2395
sg135
g125
(g129
S'P\xfc\x82\x13\x10\xcf\x02@'
p2396
tp2397
Rp2398
sg139
g125
(g129
S'\xbc\xfe\x97\xac`\xf2\xf2?'
p2399
tp2400
Rp2401
sg143
I30
sg144
g125
(g129
S'\x1a\x08\x1c\x8a\xa4\t\xe8?'
p2402
tp2403
Rp2404
sa(dp2405
g124
g125
(g129
S';j\xb9Z\xf9\x1f\xd7?'
p2406
tp2407
Rp2408
sg135
g125
(g129
S'\x9bAn7\xa0\x1e\x08@'
p2409
tp2410
Rp2411
sg139
g125
(g129
S'I$\x9d\xe9\xe1/\xf4?'
p2412
tp2413
Rp2414
sg143
I30
sg144
g125
(g129
S'\x1a\x08\x1c\x8a\xa4\t\xe8?'
p2415
tp2416
Rp2417
sa(dp2418
g124
g125
(g129
S'\xbeP^o\x96c\xc8?'
p2419
tp2420
Rp2421
sg135
g125
(g129
S'\n\\\xac\xd1\xdf\x97\x02@'
p2422
tp2423
Rp2424
sg139
g125
(g129
S'|\x8eZ\xb0\xe7\xc4\xf4?'
p2425
tp2426
Rp2427
sg143
I30
sg144
g125
(g129
S'\x98=\xa1\xb9\xfa3\xf4?'
p2428
tp2429
Rp2430
sa(dp2431
g124
g125
(g129
S'\xdb\xb1\x04\x1c\xc40\xd3?'
p2432
tp2433
Rp2434
sg135
g125
(g129
S'nE\xe989\r\xf9?'
p2435
tp2436
Rp2437
sg139
g125
(g129
S'\x82\x80C\xaf\x03\x1e\xf3?'
p2438
tp2439
Rp2440
sg143
I30
sg144
g125
(g129
S'\x80\xcf\xc0\xd7Z\x82\x83?'
p2441
tp2442
Rp2443
sa(dp2444
g124
g125
(g129
S'\x9b\xd4a\x14\x9d\x03\xcb?'
p2445
tp2446
Rp2447
sg135
g125
(g129
S'\x971M$\xeby\x02@'
p2448
tp2449
Rp2450
sg139
g125
(g129
S':\xd1y1\xc8\x91\xf5?'
p2451
tp2452
Rp2453
sg143
I30
sg144
g125
(g129
S'\x98=\xa1\xb9\xfa3\xf4?'
p2454
tp2455
Rp2456
sa(dp2457
g124
g125
(g129
S'\xce\xbf\x1d\xccD\xb1\xc1?'
p2458
tp2459
Rp2460
sg135
g125
(g129
S'nE\xe989\r\xf9?'
p2461
tp2462
Rp2463
sg139
g125
(g129
S'\x80:\x86\xf3\xfb6\xf5?'
p2464
tp2465
Rp2466
sg143
I30
sg144
g125
(g129
S'\xf1\xa9~\x07j\x9d\xf0?'
p2467
tp2468
Rp2469
sa(dp2470
g124
g125
(g129
S'\xe7\x86p%\x8da\xce?'
p2471
tp2472
Rp2473
sg135
g125
(g129
S'es;\xfb\x9e\xf3\x01@'
p2474
tp2475
Rp2476
sg139
g125
(g129
S'\xcf\x9dF\x82!\xaf\xf6?'
p2477
tp2478
Rp2479
sg143
I30
sg144
g125
(g129
S'\xf1\xa9~\x07j\x9d\xf0?'
p2480
tp2481
Rp2482
sa(dp2483
g124
g125
(g129
S'n\x99\x1c\x14, \xc8?'
p2484
tp2485
Rp2486
sg135
g125
(g129
S'\x1b\xfa\xbe\x86\xf8=\xfc?'
p2487
tp2488
Rp2489
sg139
g125
(g129
S'\xe2X\xb6\x9a2\xc4\xf7?'
p2490
tp2491
Rp2492
sg143
I30
sg144
g125
(g129
S'\xf6\x82\xe7\xc2\xaa\xb4\xf0?'
p2493
tp2494
Rp2495
sa(dp2496
g124
g125
(g129
S'\xd03\x8c:9,\xe0?'
p2497
tp2498
Rp2499
sg135
g125
(g129
S'\x1b\xfa\xbe\x86\xf8=\xfc?'
p2500
tp2501
Rp2502
sg139
g125
(g129
S'5k\xbc\xfc\xfa\xf7\xf5?'
p2503
tp2504
Rp2505
sg143
I30
sg144
g125
(g129
S'6/\x0c\x90\xdct\xe4\xbf'
p2506
tp2507
Rp2508
sa(dp2509
g124
g125
(g129
S'\xf0\xddE\x06\xa0\xd5\xda?'
p2510
tp2511
Rp2512
sg135
g125
(g129
S'\xf4\x8b<F\x1d\xef\xff?'
p2513
tp2514
Rp2515
sg139
g125
(g129
S'\xcd\xb7\xaf\xd5\x7f\x14\xf7?'
p2516
tp2517
Rp2518
sg143
I30
sg144
g125
(g129
S'6/\x0c\x90\xdct\xe4\xbf'
p2519
tp2520
Rp2521
sa(dp2522
g124
g125
(g129
S'\x9b\x0e\xb4\x99Y\xe9\xbc?'
p2523
tp2524
Rp2525
sg135
g125
(g129
S'nE\xe989\r\xf9?'
p2526
tp2527
Rp2528
sg139
g125
(g129
S'\xc7\xee\x07yY>\xf8?'
p2529
tp2530
Rp2531
sg143
I30
sg144
g125
(g129
S'\x98=\xa1\xb9\xfa3\xf4?'
p2532
tp2533
Rp2534
sa(dp2535
g124
g125
(g129
S'\x00\x00\x00\x00\x00\x00\xc8<'
p2536
tp2537
Rp2538
sg135
g125
(g129
S'nE\xe989\r\xf9?'
p2539
tp2540
Rp2541
sg139
g125
(g129
S'kE\xe989\r\xf9?'
p2542
tp2543
Rp2544
sg143
I30
sg144
g125
(g129
S'nE\xe989\r\xf9?'
p2545
tp2546
Rp2547
sa(dp2548
g124
g125
(g129
S'\x06\xd9\xc5rR\x7f\xd8?'
p2549
tp2550
Rp2551
sg135
g125
(g129
S"'D\xd3\xd8%\x89\x01@"
p2552
tp2553
Rp2554
sg139
g125
(g129
S'\x84xF\xb3[O\xf8?'
p2555
tp2556
Rp2557
sg143
I30
sg144
g125
(g129
S'\x18\x02\xa0\xa3;\xdf\xdc\xbf'
p2558
tp2559
Rp2560
sa(dp2561
g124
g125
(g129
S'\xc5\xf99\xdc\xb8\x89\xb8?'
p2562
tp2563
Rp2564
sg135
g125
(g129
S'nE\xe989\r\xf9?'
p2565
tp2566
Rp2567
sg139
g125
(g129
S'\r\xdc(pQ\xc4\xf8?'
p2568
tp2569
Rp2570
sg143
I30
sg144
g125
(g129
S'p\xec\\\xb2\x0f\x82\xf0?'
p2571
tp2572
Rp2573
sa(dp2574
g124
g125
(g129
S'\x00\x00\x00\x00\x00\x00\xc8<'
p2575
tp2576
Rp2577
sg135
g125
(g129
S'nE\xe989\r\xf9?'
p2578
tp2579
Rp2580
sg139
g125
(g129
S'kE\xe989\r\xf9?'
p2581
tp2582
Rp2583
sg143
I30
sg144
g125
(g129
S'nE\xe989\r\xf9?'
p2584
tp2585
Rp2586
sa(dp2587
g124
g125
(g129
S']\xe1\xf1\xd6ro\xba?'
p2588
tp2589
Rp2590
sg135
g125
(g129
S'dq\x16"\xab\xc9\xf9?'
p2591
tp2592
Rp2593
sg139
g125
(g129
S'6\x80\x99 n\xc5\xf8?'
p2594
tp2595
Rp2596
sg143
I30
sg144
g125
(g129
S'~\xfa\xc5\xec\xf4\xcd\xef?'
p2597
tp2598
Rp2599
sa(dp2600
g124
g125
(g129
S'!C}\x85.\x86\xd4?'
p2601
tp2602
Rp2603
sg135
g125
(g129
S'<\x1a\x07\xa5\x8a}\x05@'
p2604
tp2605
Rp2606
sg139
g125
(g129
S'\xdf\x138=s\xed\xf8?'
p2607
tp2608
Rp2609
sg143
I30
sg144
g125
(g129
S'\xa0?\x04HM1\xcb?'
p2610
tp2611
Rp2612
sa(dp2613
g124
g125
(g129
S'\x00\x00\x00\x00\x00\x00\xc8<'
p2614
tp2615
Rp2616
sg135
g125
(g129
S'nE\xe989\r\xf9?'
p2617
tp2618
Rp2619
sg139
g125
(g129
S'kE\xe989\r\xf9?'
p2620
tp2621
Rp2622
sg143
I30
sg144
g125
(g129
S'nE\xe989\r\xf9?'
p2623
tp2624
Rp2625
sa(dp2626
g124
g125
(g129
S'U[\xff\xf1U\x1a\xc2?'
p2627
tp2628
Rp2629
sg135
g125
(g129
S'nE\xe989\r\xf9?'
p2630
tp2631
Rp2632
sg139
g125
(g129
S'K\xafH\xd6\xa6\xa1\xf8?'
p2633
tp2634
Rp2635
sg143
I30
sg144
g125
(g129
S';[/T#\xe4\xe8?'
p2636
tp2637
Rp2638
sa(dp2639
g124
g125
(g129
S'x\x8b\x08\xd6v&\xd0?'
p2640
tp2641
Rp2642
sg135
g125
(g129
S'\x9a\xafuu\xda\xe3\xf9?'
p2643
tp2644
Rp2645
sg139
g125
(g129
S'WQ\xc6\xb7c\x04\xf8?'
p2646
tp2647
Rp2648
sg143
I30
sg144
g125
(g129
S'@\x9e\x0c\x83\xf5u\xda?'
p2649
tp2650
Rp2651
sa(dp2652
g124
g125
(g129
S'\x9ce\x87\xac\x9d\xc5\xc4?'
p2653
tp2654
Rp2655
sg135
g125
(g129
S'\\\x8e\xd7\xd9L\xac\xfd?'
p2656
tp2657
Rp2658
sg139
g125
(g129
S':\xaez\xb7R\xb0\xf8?'
p2659
tp2660
Rp2661
sg143
I30
sg144
g125
(g129
S'\xca\xbd\xd4d\x9d:\xe7?'
p2662
tp2663
Rp2664
sa(dp2665
g124
g125
(g129
S"R\xbe\xfd3S'\xc8?"
p2666
tp2667
Rp2668
sg135
g125
(g129
S'\\\x8e\xd7\xd9L\xac\xfd?'
p2669
tp2670
Rp2671
sg139
g125
(g129
S'\xbd\x06]a#E\xf8?'
p2672
tp2673
Rp2674
sg143
I30
sg144
g125
(g129
S'\x12\x81\xd4\xeb?\xd1\xe2?'
p2675
tp2676
Rp2677
sa(dp2678
g124
g125
(g129
S'\xa2\xf2\x82\x11\xc0\xc5\xcb?'
p2679
tp2680
Rp2681
sg135
g125
(g129
S'\xa2\xa9\x0b\xd2\x9d\x05\x03@'
p2682
tp2683
Rp2684
sg139
g125
(g129
S'\x932i\x80\xc9A\xfa?'
p2685
tp2686
Rp2687
sg143
I30
sg144
g125
(g129
S'Z+\x84\xf3\x0c\xfb\xf6?'
p2688
tp2689
Rp2690
sa(dp2691
g124
g125
(g129
S'\xdeR\xa5\xf8cz\xd0?'
p2692
tp2693
Rp2694
sg135
g125
(g129
S'\xa2\xa9\x0b\xd2\x9d\x05\x03@'
p2695
tp2696
Rp2697
sg139
g125
(g129
S'\x8c\x84\x89\xf1\x92\x89\xf9?'
p2698
tp2699
Rp2700
sg143
I30
sg144
g125
(g129
S'\xd9_\x9fK`\x13\xeb?'
p2701
tp2702
Rp2703
sa(dp2704
g124
g125
(g129
S'\xe4\xfe>\x1f\x17q\xd3?'
p2705
tp2706
Rp2707
sg135
g125
(g129
S'\xa2\xa9\x0b\xd2\x9d\x05\x03@'
p2708
tp2709
Rp2710
sg139
g125
(g129
S'\xe4&w\x8dwv\xfb?'
p2711
tp2712
Rp2713
sg143
I30
sg144
g125
(g129
S'nE\xe989\r\xf9?'
p2714
tp2715
Rp2716
sa(dp2717
g124
g125
(g129
S'Q\xc5\x07%\xdf8\xdb?'
p2718
tp2719
Rp2720
sg135
g125
(g129
S'\xa2\xa9\x0b\xd2\x9d\x05\x03@'
p2721
tp2722
Rp2723
sg139
g125
(g129
S'\x06\xb6\xee\x97\t\x16\xfc?'
p2724
tp2725
Rp2726
sg143
I30
sg144
g125
(g129
S't6 \x86?\xf1\xdd?'
p2727
tp2728
Rp2729
sa(dp2730
g124
g125
(g129
S'V\xdd\x13\xa4\xcc\x04\xe4?'
p2731
tp2732
Rp2733
sg135
g125
(g129
S'\xa2\xa9\x0b\xd2\x9d\x05\x03@'
p2734
tp2735
Rp2736
sg139
g125
(g129
S':\n(Jh\x00\xfe?'
p2737
tp2738
Rp2739
sg143
I30
sg144
g125
(g129
S'\xa2\x95,\xce\xea\xc1\xd3\xbf'
p2740
tp2741
Rp2742
satp2743
Rp2744
(dp2745
g112
I01
sg113
Nsg114
(lp2746
I8
aI7
aI10
aI4
aI11
asg116
I0
sg117
g118
(g4
tp2747
Rp2748
sbssbsS'rndstate'
p2749
(I3
(L1017141188L
L870962711L
L3681128616L
L3520065989L
L3735486742L
L1592310845L
L1421336561L
L212503254L
L1640693435L
L3864814875L
L4118708376L
L4024636424L
L1916641026L
L3636475020L
L3699658285L
L1724738673L
L3260772518L
L2627255647L
L1077661029L
L1239689443L
L1140113751L
L96195340L
L1784858980L
L1407217676L
L919472492L
L3600221951L
L146206020L
L3588499798L
L414222810L
L269592365L
L449212530L
L2347921251L
L1846081041L
L461186283L
L1148040543L
L484531212L
L2326833087L
L550757186L
L3992166393L
L1130007823L
L304292072L
L1451120853L
L2547334253L
L3715138777L
L3655830618L
L774259414L
L3326597916L
L2154495183L
L1368807397L
L3435483845L
L633676829L
L1175512637L
L3504153540L
L1250291584L
L3095670925L
L3956903340L
L3991699700L
L448188730L
L1606935431L
L3640996701L
L721744600L
L3501210884L
L1851313407L
L412186977L
L3312136224L
L1169120583L
L2607232092L
L2916918492L
L155556934L
L4199150409L
L3738778527L
L2776653805L
L2307523653L
L2841079218L
L135952726L
L679042395L
L1335075151L
L2096080159L
L1554362411L
L3430689755L
L1853288843L
L2187539975L
L4223268981L
L2939113733L
L355787172L
L1761186043L
L2282203515L
L2208793861L
L440501541L
L1478241697L
L1870302214L
L3091327804L
L1815969632L
L1844124476L
L3903570170L
L1428313285L
L2076121777L
L28931063L
L2717991540L
L1798844759L
L2105230606L
L2859856421L
L4042559416L
L2578919916L
L1597284344L
L612195782L
L2175737838L
L114529519L
L519264395L
L4196632073L
L3220991807L
L4024455765L
L2624195004L
L4056861798L
L1362320979L
L3252314598L
L2250753913L
L2175993173L
L2767658549L
L1264250808L
L4226583269L
L2813103040L
L3928456897L
L1569526600L
L4277150433L
L2346388790L
L565806633L
L1794381215L
L898184665L
L2131286052L
L857168770L
L38285648L
L2304121537L
L766015238L
L365164064L
L3970803584L
L1704690191L
L3926184855L
L1794148094L
L1165732887L
L276772744L
L2848301965L
L2290908084L
L3225273805L
L2324479803L
L264776893L
L1406903387L
L1121571631L
L914581681L
L872374265L
L2890293579L
L4162268330L
L4127857576L
L243265483L
L2606793180L
L2686780621L
L249486325L
L637550163L
L906869997L
L291818032L
L2941557194L
L524442137L
L3160698760L
L1290539770L
L3485544047L
L2113520972L
L3864145783L
L1509962015L
L1005742662L
L3460121663L
L3950962032L
L3553315323L
L3741706160L
L1136140598L
L774215521L
L2626185187L
L1936049311L
L2990396713L
L3577332896L
L1140434086L
L1653588369L
L3622339070L
L3780409767L
L1912640331L
L291060228L
L1336005159L
L12166319L
L1327113428L
L878632183L
L803637008L
L3953232640L
L1716463754L
L1426951359L
L3522157041L
L2667204022L
L2729644845L
L3930005563L
L1766680738L
L861191514L
L3997479905L
L2157535692L
L3513743677L
L3433266393L
L730202490L
L3659689714L
L3249251192L
L2629920994L
L1311082595L
L766298948L
L3317201897L
L1464763020L
L3224366172L
L3589597304L
L3298002567L
L3588947343L
L523096739L
L3970746866L
L1987057517L
L2228069287L
L3804119350L
L1952843793L
L910046631L
L4050878321L
L2572305666L
L3100421966L
L982480652L
L360987065L
L2744070769L
L3996053779L
L1026167286L
L1349816995L
L1972918753L
L344678369L
L3751714775L
L3947891444L
L4035236279L
L2845316438L
L4262757494L
L4269696940L
L3158108849L
L4131090345L
L3774325611L
L707613037L
L484816043L
L437202668L
L1972775641L
L929742292L
L370292806L
L2141503102L
L2097266929L
L2417838690L
L2653493269L
L2604301368L
L2560120261L
L1792086677L
L1569121960L
L2147064166L
L2423437355L
L3426377412L
L3092201960L
L1681485171L
L1830726293L
L2979755035L
L2145712648L
L1692084181L
L4292194377L
L130695569L
L1589203802L
L4008109971L
L3330761585L
L2200066876L
L2492276121L
L3228593640L
L2762487361L
L2167324461L
L3693236239L
L733538938L
L234935254L
L3877738711L
L2860566848L
L1370239248L
L2787188030L
L1210721571L
L3556558963L
L1252147671L
L3338334280L
L3503908302L
L578732466L
L2991377360L
L1849071213L
L903185180L
L1704695197L
L1995931026L
L42970170L
L2496564001L
L3894887398L
L216365326L
L1233061144L
L2228989423L
L3557188385L
L4059147808L
L1356595467L
L2078360914L
L149859977L
L2767061979L
L468480787L
L871955745L
L3485929354L
L4196153992L
L651627069L
L4134943060L
L3751647077L
L1538512479L
L4044767227L
L2524178330L
L2157475081L
L526163915L
L3235452394L
L2480911888L
L3205394571L
L2877799515L
L3687437233L
L1763583094L
L988894348L
L646297334L
L692644948L
L3025733666L
L1110304337L
L2362706309L
L2533176548L
L3396329006L
L1193078365L
L798398289L
L2921553820L
L2670089006L
L3856666823L
L3515442121L
L2896964561L
L1662133156L
L2420333778L
L3551344019L
L997085470L
L1533518556L
L2265429373L
L2004311748L
L302835770L
L834189275L
L353871364L
L3658178345L
L867265141L
L3461892356L
L1275018903L
L2423127156L
L1042445370L
L3088768065L
L2329712391L
L3155045910L
L4255922073L
L1654014898L
L2583487119L
L263887308L
L4189616996L
L3568819191L
L2695736592L
L3295841172L
L2216186495L
L1352064408L
L204838689L
L2304539352L
L3023391542L
L3181829201L
L515448773L
L4017904340L
L2968743350L
L2670300779L
L4131285468L
L92764137L
L78520734L
L342193703L
L3367060698L
L2662212694L
L3779248154L
L3520458851L
L2905539581L
L3543745353L
L2633559472L
L631434184L
L449349314L
L1914049558L
L3300101684L
L1023661620L
L83381125L
L2540588608L
L3196195566L
L4165286466L
L4112803805L
L3468156289L
L4136611930L
L2310606326L
L825524210L
L1681963157L
L880421994L
L2241841712L
L1586087131L
L480699256L
L2212723770L
L655727699L
L479694081L
L876458501L
L3357401440L
L3536345532L
L4071628738L
L2567547254L
L139375297L
L3444240659L
L1914020455L
L2151719700L
L2630188138L
L1874374524L
L1057183706L
L2453332844L
L1485460627L
L3046867498L
L1979799208L
L3557521850L
L4289267452L
L638636389L
L708610387L
L69960193L
L3605107213L
L825133367L
L727759014L
L1946395058L
L686283515L
L2444845584L
L1565178228L
L1540712843L
L924872567L
L1166495440L
L1033432398L
L1630823889L
L7334198L
L1811439286L
L1266506363L
L1541374439L
L2715073897L
L132259304L
L1065002233L
L1987205771L
L3770456476L
L1654308910L
L4110530342L
L2070859180L
L1070388118L
L573083965L
L1180130516L
L2255485589L
L2931982538L
L1734155807L
L3853576845L
L4191093445L
L613942382L
L2706682565L
L874699170L
L1158103445L
L354347974L
L1383438818L
L320761529L
L4129471686L
L4291705549L
L2259579101L
L3371432022L
L1080008836L
L339001829L
L3043021032L
L3343187181L
L564998683L
L3551634946L
L1988178825L
L2166575778L
L4105806920L
L2395258189L
L1175059507L
L800003395L
L3041632293L
L2943803289L
L438054905L
L1772420911L
L3715064602L
L2730676972L
L777053786L
L697816867L
L671039566L
L3677009732L
L1670079908L
L1880812000L
L2396487341L
L2895769185L
L394147352L
L2402834400L
L3161279385L
L1005582274L
L724193017L
L53962112L
L1383680251L
L1007207430L
L138704906L
L625949128L
L2891114696L
L863955297L
L2809633082L
L2373438772L
L2014089124L
L368785110L
L2989950816L
L1187800088L
L499598982L
L374082594L
L2402985117L
L3525903672L
L621039759L
L2105318294L
L3422789654L
L2586679258L
L3232059045L
L1492529988L
L3981683066L
L4128168325L
L938122614L
L1614990291L
L93119591L
L749072122L
L3676231376L
L1217866321L
L1646960596L
L694172223L
L578652715L
L4234978510L
L2264125802L
L2773036075L
L1369540018L
L4063600665L
L3945425352L
L1922146283L
L244467317L
L3144464490L
L2859966936L
L4099142193L
L2971370340L
L3268196034L
L351773127L
L2457560473L
L2215235564L
L2717954239L
L2479216292L
L849538002L
L168879381L
L3695026707L
L494972500L
L1103833556L
L3125479499L
L3730548423L
L512961913L
L756952220L
L1235935835L
L902245813L
L372443292L
L3586919366L
L1261956197L
L3571832051L
L3775511575L
L1154597062L
L3091606649L
L1815099678L
L1552353264L
L637889029L
L3677471998L
L2025410399L
L467386842L
L2524641217L
L2052187866L
L2582589268L
L101322616L
L2305741013L
L1848337514L
L932993370L
L1563407741L
L2004658142L
L4245162089L
L4094004001L
L2867838203L
L378683486L
L2074262459L
L2661551128L
L3564873589L
L1910726988L
L3590433239L
L472320391L
L3512368311L
L4021915777L
L2633046558L
L362847896L
L3168216871L
L3558696756L
L1900613254L
L2288490758L
L3709101190L
L3725864741L
L1995822246L
L2819537830L
L654605811L
L1219364272L
L3864045646L
L2793595983L
L2111352774L
L2254637503L
L1440090161L
L1425097264L
L3239431590L
L1051998397L
L4065798085L
L1218628912L
L71525438L
L3504862819L
L452L
tp2750
F-0.6652842625086623
tp2751
sS'halloffame'
p2752
g3
(cdeap.tools.support
HallOfFame
p2753
c__builtin__
object
p2754
Ntp2755
Rp2756
(dp2757
S'keys'
p2758
(lp2759
g3
(cdeap.creator
FitnessMin
p2760
g2754
Ntp2761
Rp2762
(dp2763
S'wvalues'
p2764
(g125
(g129
S'\xc3\x01\xcc\x91\xb2r@@'
p2765
tp2766
Rp2767
tp2768
sbasS'items'
p2769
(lp2770
cdeap.creator
Individual
p2771
((lp2772
g125
(g129
S'\x08}j\xe0\xec\xf7?@'
p2773
tp2774
Rp2775
ag125
(g129
S'\xa2\xa9\x0b\xd2\x9d\x05\x03@'
p2776
tp2777
Rp2778
ag125
(g129
S'\x1c;\xcd\xfd\xb7\xf4\xf6?'
p2779
tp2780
Rp2781
ag125
(g129
S"'\xfc\xc3\xfd\xc8|\x00\xc0"
p2782
tp2783
Rp2784
ag125
(g129
S';\x84d\xab\xfc{\xda\xbf'
p2785
tp2786
Rp2787
atp2788
Rp2789
(dp2790
g1441
g2762
sbasS'maxsize'
p2791
I1
sS'similar'
p2792
cnumpy.core.numeric
array_equal
p2793
sbsS'population'
p2794
(lp2795
g2771
((lp2796
g125
(g129
S'\xcc\x89\xbf\n\xa7\xe0?@'
p2797
tp2798
Rp2799
ag125
(g129
S'nE\xe989\r\xf9?'
p2800
tp2801
Rp2802
ag125
(g129
S'\x1c;\xcd\xfd\xb7\xf4\xf6?'
p2803
tp2804
Rp2805
ag125
(g129
S"'\xfc\xc3\xfd\xc8|\x00\xc0"
p2806
tp2807
Rp2808
ag125
(g129
S'\xc6\xa9\xd4E\x90\xe6\xd6?'
p2809
tp2810
Rp2811
atp2812
Rp2813
(dp2814
g1441
g3
(g2760
g2754
Ntp2815
Rp2816
(dp2817
g2764
(g125
(g129
S'{St>\x0b@@@'
p2818
tp2819
Rp2820
tp2821
sbsbag2771
((lp2822
g125
(g129
S'\x08}j\xe0\xec\xf7?@'
p2823
tp2824
Rp2825
ag125
(g129
S'\xa2\xa9\x0b\xd2\x9d\x05\x03@'
p2826
tp2827
Rp2828
ag125
(g129
S'\x1c;\xcd\xfd\xb7\xf4\xf6?'
p2829
tp2830
Rp2831
ag125
(g129
S"'\xfc\xc3\xfd\xc8|\x00\xc0"
p2832
tp2833
Rp2834
ag125
(g129
S'x\xd6\xdfo\x8e\x1c\xdd\xbf'
p2835
tp2836
Rp2837
atp2838
Rp2839
(dp2840
g1441
g3
(g2760
g2754
Ntp2841
Rp2842
(dp2843
g2764
(g125
(g129
S'\xf5G\x9bU\x02I@@'
p2844
tp2845
Rp2846
tp2847
sbsbag2771
((lp2848
g125
(g129
S'\xcc\x89\xbf\n\xa7\xe0?@'
p2849
tp2850
Rp2851
ag125
(g129
S'nE\xe989\r\xf9?'
p2852
tp2853
Rp2854
ag125
(g129
S'\x1c;\xcd\xfd\xb7\xf4\xf6?'
p2855
tp2856
Rp2857
ag125
(g129
S"'\xfc\xc3\xfd\xc8|\x00\xc0"
p2858
tp2859
Rp2860
ag125
(g129
S'\xc6\xa9\xd4E\x90\xe6\xd6?'
p2861
tp2862
Rp2863
atp2864
Rp2865
(dp2866
g1441
g3
(g2760
g2754
Ntp2867
Rp2868
(dp2869
g2764
(g125
(g129
S'\x1bO_eH[@@'
p2870
tp2871
Rp2872
tp2873
sbsbag2771
((lp2874
g125
(g129
S'\x8b_\xe11\x0e\x02@@'
p2875
tp2876
Rp2877
ag125
(g129
S'\xa2\xa9\x0b\xd2\x9d\x05\x03@'
p2878
tp2879
Rp2880
ag125
(g129
S'\x1c;\xcd\xfd\xb7\xf4\xf6?'
p2881
tp2882
Rp2883
ag125
(g129
S"'\xfc\xc3\xfd\xc8|\x00\xc0"
p2884
tp2885
Rp2886
ag125
(g129
S'x\xd6\xdfo\x8e\x1c\xdd\xbf'
p2887
tp2888
Rp2889
atp2890
Rp2891
(dp2892
g1441
g3
(g2760
g2754
Ntp2893
Rp2894
(dp2895
g2764
(g125
(g129
S'-\x02q\xb5\xd34@@'
p2896
tp2897
Rp2898
tp2899
sbsbag2865
ag2771
((lp2900
g125
(g129
S'\x08}j\xe0\xec\xf7?@'
p2901
tp2902
Rp2903
ag125
(g129
S'\xa2\xa9\x0b\xd2\x9d\x05\x03@'
p2904
tp2905
Rp2906
ag125
(g129
S'\x1c;\xcd\xfd\xb7\xf4\xf6?'
p2907
tp2908
Rp2909
ag125
(g129
S"'\xfc\xc3\xfd\xc8|\x00\xc0"
p2910
tp2911
Rp2912
ag125
(g129
S'x\xd6\xdfo\x8e\x1c\xdd\xbf'
p2913
tp2914
Rp2915
atp2916
Rp2917
(dp2918
g1441
g3
(g2760
g2754
Ntp2919
Rp2920
(dp2921
g2764
(g125
(g129
S'\xad\x19\xe6\xd3Wr@@'
p2922
tp2923
Rp2924
tp2925
sbsbag2771
((lp2926
g125
(g129
S'\x08}j\xe0\xec\xf7?@'
p2927
tp2928
Rp2929
ag125
(g129
S'\xa2\xa9\x0b\xd2\x9d\x05\x03@'
p2930
tp2931
Rp2932
ag125
(g129
S'\x1c;\xcd\xfd\xb7\xf4\xf6?'
p2933
tp2934
Rp2935
ag125
(g129
S"'\xfc\xc3\xfd\xc8|\x00\xc0"
p2936
tp2937
Rp2938
ag125
(g129
S'x\xd6\xdfo\x8e\x1c\xdd\xbf'
p2939
tp2940
Rp2941
atp2942
Rp2943
(dp2944
g1441
g3
(g2760
g2754
Ntp2945
Rp2946
(dp2947
g2764
(g125
(g129
S'\xaf\xa7\xf0\xa2\xec\x19@@'
p2948
tp2949
Rp2950
tp2951
sbsbag2771
((lp2952
g125
(g129
S'\x08}j\xe0\xec\xf7?@'
p2953
tp2954
Rp2955
ag125
(g129
S'\xa2\xa9\x0b\xd2\x9d\x05\x03@'
p2956
tp2957
Rp2958
ag125
(g129
S'\x1c;\xcd\xfd\xb7\xf4\xf6?'
p2959
tp2960
Rp2961
ag125
(g129
S"'\xfc\xc3\xfd\xc8|\x00\xc0"
p2962
tp2963
Rp2964
ag125
(g129
S'x\xd6\xdfo\x8e\x1c\xdd\xbf'
p2965
tp2966
Rp2967
atp2968
Rp2969
(dp2970
g1441
g3
(g2760
g2754
Ntp2971
Rp2972
(dp2973
g2764
(g125
(g129
S'\x98\x0c\x91"Xc@@'
p2974
tp2975
Rp2976
tp2977
sbsbag2771
((lp2978
g125
(g129
S'\xcc\x89\xbf\n\xa7\xe0?@'
p2979
tp2980
Rp2981
ag125
(g129
S'nE\xe989\r\xf9?'
p2982
tp2983
Rp2984
ag125
(g129
S'\x1c;\xcd\xfd\xb7\xf4\xf6?'
p2985
tp2986
Rp2987
ag125
(g129
S"'\xfc\xc3\xfd\xc8|\x00\xc0"
p2988
tp2989
Rp2990
ag125
(g129
S'\xc6\xa9\xd4E\x90\xe6\xd6?'
p2991
tp2992
Rp2993
atp2994
Rp2995
(dp2996
g1441
g3
(g2760
g2754
Ntp2997
Rp2998
(dp2999
g2764
(g125
(g129
S'ekD8r\x1f@@'
p3000
tp3001
Rp3002
tp3003
sbsbag2771
((lp3004
g125
(g129
S'\x08}j\xe0\xec\xf7?@'
p3005
tp3006
Rp3007
ag125
(g129
S'\xa2\xa9\x0b\xd2\x9d\x05\x03@'
p3008
tp3009
Rp3010
ag125
(g129
S'\x1c;\xcd\xfd\xb7\xf4\xf6?'
p3011
tp3012
Rp3013
ag125
(g129
S"'\xfc\xc3\xfd\xc8|\x00\xc0"
p3014
tp3015
Rp3016
ag125
(g129
S'\xc6\xa9\xd4E\x90\xe6\xd6?'
p3017
tp3018
Rp3019
atp3020
Rp3021
(dp3022
g1441
g3
(g2760
g2754
Ntp3023
Rp3024
(dp3025
g2764
(g125
(g129
S'mE1\x9b@^@@'
p3026
tp3027
Rp3028
tp3029
sbsbag2813
ag2917
ag2839
ag2771
((lp3030
g125
(g129
S'\x08}j\xe0\xec\xf7?@'
p3031
tp3032
Rp3033
ag125
(g129
S'\xa2\xa9\x0b\xd2\x9d\x05\x03@'
p3034
tp3035
Rp3036
ag125
(g129
S'\x1c;\xcd\xfd\xb7\xf4\xf6?'
p3037
tp3038
Rp3039
ag125
(g129
S"'\xfc\xc3\xfd\xc8|\x00\xc0"
p3040
tp3041
Rp3042
ag125
(g129
S'x\xd6\xdfo\x8e\x1c\xdd\xbf'
p3043
tp3044
Rp3045
atp3046
Rp3047
(dp3048
g1441
g3
(g2760
g2754
Ntp3049
Rp3050
(dp3051
g2764
(g125
(g129
S'\xa5|\rz\xbe"@@'
p3052
tp3053
Rp3054
tp3055
sbsbag2865
ag2771
((lp3056
g125
(g129
S'\x08}j\xe0\xec\xf7?@'
p3057
tp3058
Rp3059
ag125
(g129
S'\xa2\xa9\x0b\xd2\x9d\x05\x03@'
p3060
tp3061
Rp3062
ag125
(g129
S'\x1c;\xcd\xfd\xb7\xf4\xf6?'
p3063
tp3064
Rp3065
ag125
(g129
S"'\xfc\xc3\xfd\xc8|\x00\xc0"
p3066
tp3067
Rp3068
ag125
(g129
S';\x84d\xab\xfc{\xda\xbf'
p3069
tp3070
Rp3071
atp3072
Rp3073
(dp3074
g1441
g3
(g2760
g2754
Ntp3075
Rp3076
(dp3077
g2764
(g125
(g129
S'S\xa6.\xf6-o@@'
p3078
tp3079
Rp3080
tp3081
sbsbag2771
((lp3082
g125
(g129
S'\x08}j\xe0\xec\xf7?@'
p3083
tp3084
Rp3085
ag125
(g129
S'\xa2\xa9\x0b\xd2\x9d\x05\x03@'
p3086
tp3087
Rp3088
ag125
(g129
S'\x1c;\xcd\xfd\xb7\xf4\xf6?'
p3089
tp3090
Rp3091
ag125
(g129
S"'\xfc\xc3\xfd\xc8|\x00\xc0"
p3092
tp3093
Rp3094
ag125
(g129
S'x\xd6\xdfo\x8e\x1c\xdd\xbf'
p3095
tp3096
Rp3097
atp3098
Rp3099
(dp3100
g1441
g3
(g2760
g2754
Ntp3101
Rp3102
(dp3103
g2764
(g125
(g129
S'\xfa\xf8\x9cp\xf31@@'
p3104
tp3105
Rp3106
tp3107
sbsbag3073
ag2771
((lp3108
g125
(g129
S'\xcc\x89\xbf\n\xa7\xe0?@'
p3109
tp3110
Rp3111
ag125
(g129
S'nE\xe989\r\xf9?'
p3112
tp3113
Rp3114
ag125
(g129
S'\x1c;\xcd\xfd\xb7\xf4\xf6?'
p3115
tp3116
Rp3117
ag125
(g129
S"'\xfc\xc3\xfd\xc8|\x00\xc0"
p3118
tp3119
Rp3120
ag125
(g129
S'\xc6\xa9\xd4E\x90\xe6\xd6?'
p3121
tp3122
Rp3123
atp3124
Rp3125
(dp3126
g1441
g3
(g2760
g2754
Ntp3127
Rp3128
(dp3129
g2764
(g125
(g129
S'\xb4\xfc\xc6\xa2\xf5E@@'
p3130
tp3131
Rp3132
tp3133
sbsbag3125
ag2839
ag2969
ag2943
ag2917
ag2839
ag2969
ag2839
ag2813
ag3021
ag2969
as.